
dltest:     file format elf64-x86-64

Disassembly of section .init:

0000000000400588 <_init>:
  400588:	48 83 ec 08          	sub    $0x8,%rsp
  40058c:	e8 cb 00 00 00       	callq  40065c <call_gmon_start>
  400591:	e8 4a 01 00 00       	callq  4006e0 <frame_dummy>
  400596:	e8 25 03 00 00       	callq  4008c0 <__do_global_ctors_aux>
  40059b:	48 83 c4 08          	add    $0x8,%rsp
  40059f:	c3                   	retq   
Disassembly of section .plt:

00000000004005a0 <printf@plt-0x10>:
  4005a0:	ff 35 ca 06 20 00    	pushq  2098890(%rip)        # 600c70 <_GLOBAL_OFFSET_TABLE_+0x8>
  4005a6:	ff 25 cc 06 20 00    	jmpq   *2098892(%rip)        # 600c78 <_GLOBAL_OFFSET_TABLE_+0x10>
  4005ac:	0f 1f 40 00          	nopl   0x0(%rax)

00000000004005b0 <printf@plt>:
  4005b0:	ff 25 ca 06 20 00    	jmpq   *2098890(%rip)        # 600c80 <_GLOBAL_OFFSET_TABLE_+0x18>
  4005b6:	68 00 00 00 00       	pushq  $0x0
  4005bb:	e9 e0 ff ff ff       	jmpq   4005a0 <_init+0x18>

00000000004005c0 <putchar@plt>:
  4005c0:	ff 25 c2 06 20 00    	jmpq   *2098882(%rip)        # 600c88 <_GLOBAL_OFFSET_TABLE_+0x20>
  4005c6:	68 01 00 00 00       	pushq  $0x1
  4005cb:	e9 d0 ff ff ff       	jmpq   4005a0 <_init+0x18>

00000000004005d0 <__libc_start_main@plt>:
  4005d0:	ff 25 ba 06 20 00    	jmpq   *2098874(%rip)        # 600c90 <_GLOBAL_OFFSET_TABLE_+0x28>
  4005d6:	68 02 00 00 00       	pushq  $0x2
  4005db:	e9 c0 ff ff ff       	jmpq   4005a0 <_init+0x18>

00000000004005e0 <dlerror@plt>:
  4005e0:	ff 25 b2 06 20 00    	jmpq   *2098866(%rip)        # 600c98 <_GLOBAL_OFFSET_TABLE_+0x30>
  4005e6:	68 03 00 00 00       	pushq  $0x3
  4005eb:	e9 b0 ff ff ff       	jmpq   4005a0 <_init+0x18>

00000000004005f0 <dlclose@plt>:
  4005f0:	ff 25 aa 06 20 00    	jmpq   *2098858(%rip)        # 600ca0 <_GLOBAL_OFFSET_TABLE_+0x38>
  4005f6:	68 04 00 00 00       	pushq  $0x4
  4005fb:	e9 a0 ff ff ff       	jmpq   4005a0 <_init+0x18>

0000000000400600 <dlopen@plt>:
  400600:	ff 25 a2 06 20 00    	jmpq   *2098850(%rip)        # 600ca8 <_GLOBAL_OFFSET_TABLE_+0x40>
  400606:	68 05 00 00 00       	pushq  $0x5
  40060b:	e9 90 ff ff ff       	jmpq   4005a0 <_init+0x18>

0000000000400610 <dlsym@plt>:
  400610:	ff 25 9a 06 20 00    	jmpq   *2098842(%rip)        # 600cb0 <_GLOBAL_OFFSET_TABLE_+0x48>
  400616:	68 06 00 00 00       	pushq  $0x6
  40061b:	e9 80 ff ff ff       	jmpq   4005a0 <_init+0x18>

0000000000400620 <__gxx_personality_v0@plt>:
  400620:	ff 25 92 06 20 00    	jmpq   *2098834(%rip)        # 600cb8 <_GLOBAL_OFFSET_TABLE_+0x50>
  400626:	68 07 00 00 00       	pushq  $0x7
  40062b:	e9 70 ff ff ff       	jmpq   4005a0 <_init+0x18>
Disassembly of section .text:

0000000000400630 <_start>:
  400630:	31 ed                	xor    %ebp,%ebp
  400632:	49 89 d1             	mov    %rdx,%r9
  400635:	5e                   	pop    %rsi
  400636:	48 89 e2             	mov    %rsp,%rdx
  400639:	48 83 e4 f0          	and    $0xfffffffffffffff0,%rsp
  40063d:	50                   	push   %rax
  40063e:	54                   	push   %rsp
  40063f:	49 c7 c0 20 08 40 00 	mov    $0x400820,%r8
  400646:	48 c7 c1 30 08 40 00 	mov    $0x400830,%rcx
  40064d:	48 c7 c7 70 07 40 00 	mov    $0x400770,%rdi
  400654:	e8 77 ff ff ff       	callq  4005d0 <__libc_start_main@plt>
  400659:	f4                   	hlt    
  40065a:	90                   	nop    
  40065b:	90                   	nop    

000000000040065c <call_gmon_start>:
  40065c:	48 83 ec 08          	sub    $0x8,%rsp
  400660:	48 8b 05 f9 05 20 00 	mov    2098681(%rip),%rax        # 600c60 <_DYNAMIC+0x1d0>
  400667:	48 85 c0             	test   %rax,%rax
  40066a:	74 02                	je     40066e <call_gmon_start+0x12>
  40066c:	ff d0                	callq  *%rax
  40066e:	48 83 c4 08          	add    $0x8,%rsp
  400672:	c3                   	retq   
  400673:	90                   	nop    
  400674:	90                   	nop    
  400675:	90                   	nop    
  400676:	90                   	nop    
  400677:	90                   	nop    
  400678:	90                   	nop    
  400679:	90                   	nop    
  40067a:	90                   	nop    
  40067b:	90                   	nop    
  40067c:	90                   	nop    
  40067d:	90                   	nop    
  40067e:	90                   	nop    
  40067f:	90                   	nop    

0000000000400680 <__do_global_dtors_aux>:
  400680:	55                   	push   %rbp
  400681:	48 89 e5             	mov    %rsp,%rbp
  400684:	53                   	push   %rbx
  400685:	48 83 ec 08          	sub    $0x8,%rsp
  400689:	80 3d 40 06 20 00 00 	cmpb   $0x0,2098752(%rip)        # 600cd0 <completed.6145>
  400690:	75 44                	jne    4006d6 <__do_global_dtors_aux+0x56>
  400692:	b8 80 0a 60 00       	mov    $0x600a80,%eax
  400697:	48 2d 78 0a 60 00    	sub    $0x600a78,%rax
  40069d:	48 c1 f8 03          	sar    $0x3,%rax
  4006a1:	48 8d 58 ff          	lea    0xffffffffffffffff(%rax),%rbx
  4006a5:	48 8b 05 1c 06 20 00 	mov    2098716(%rip),%rax        # 600cc8 <dtor_idx.6147>
  4006ac:	48 39 c3             	cmp    %rax,%rbx
  4006af:	76 1e                	jbe    4006cf <__do_global_dtors_aux+0x4f>
  4006b1:	48 83 c0 01          	add    $0x1,%rax
  4006b5:	48 89 05 0c 06 20 00 	mov    %rax,2098700(%rip)        # 600cc8 <dtor_idx.6147>
  4006bc:	ff 14 c5 78 0a 60 00 	callq  *0x600a78(,%rax,8)
  4006c3:	48 8b 05 fe 05 20 00 	mov    2098686(%rip),%rax        # 600cc8 <dtor_idx.6147>
  4006ca:	48 39 c3             	cmp    %rax,%rbx
  4006cd:	77 e2                	ja     4006b1 <__do_global_dtors_aux+0x31>
  4006cf:	c6 05 fa 05 20 00 01 	movb   $0x1,2098682(%rip)        # 600cd0 <completed.6145>
  4006d6:	48 83 c4 08          	add    $0x8,%rsp
  4006da:	5b                   	pop    %rbx
  4006db:	c9                   	leaveq 
  4006dc:	c3                   	retq   
  4006dd:	0f 1f 00             	nopl   (%rax)

00000000004006e0 <frame_dummy>:
  4006e0:	55                   	push   %rbp
  4006e1:	48 83 3d 9f 03 20 00 	cmpq   $0x0,2098079(%rip)        # 600a88 <__JCR_END__>
  4006e8:	00 
  4006e9:	48 89 e5             	mov    %rsp,%rbp
  4006ec:	74 16                	je     400704 <frame_dummy+0x24>
  4006ee:	b8 00 00 00 00       	mov    $0x0,%eax
  4006f3:	48 85 c0             	test   %rax,%rax
  4006f6:	74 0c                	je     400704 <frame_dummy+0x24>
  4006f8:	bf 88 0a 60 00       	mov    $0x600a88,%edi
  4006fd:	49 89 c3             	mov    %rax,%r11
  400700:	c9                   	leaveq 
  400701:	41 ff e3             	jmpq   *%r11
  400704:	c9                   	leaveq 
  400705:	c3                   	retq   
  400706:	90                   	nop    
  400707:	90                   	nop    

0000000000400708 <_Z10print_addrPv>:
  400708:	55                   	push   %rbp
  400709:	48 89 e5             	mov    %rsp,%rbp
  40070c:	48 83 ec 30          	sub    $0x30,%rsp
  400710:	48 89 7d d8          	mov    %rdi,0xffffffffffffffd8(%rbp)
  400714:	48 8b 45 d8          	mov    0xffffffffffffffd8(%rbp),%rax
  400718:	48 89 45 e8          	mov    %rax,0xffffffffffffffe8(%rbp)
  40071c:	48 8d 45 e8          	lea    0xffffffffffffffe8(%rbp),%rax
  400720:	48 89 45 f0          	mov    %rax,0xfffffffffffffff0(%rbp)
  400724:	bf 18 09 40 00       	mov    $0x400918,%edi
  400729:	b8 00 00 00 00       	mov    $0x0,%eax
  40072e:	e8 7d fe ff ff       	callq  4005b0 <printf@plt>
  400733:	c7 45 fc 07 00 00 00 	movl   $0x7,0xfffffffffffffffc(%rbp)
  40073a:	eb 22                	jmp    40075e <_Z10print_addrPv+0x56>
  40073c:	8b 45 fc             	mov    0xfffffffffffffffc(%rbp),%eax
  40073f:	48 98                	cltq   
  400741:	48 03 45 f0          	add    0xfffffffffffffff0(%rbp),%rax
  400745:	0f b6 00             	movzbl (%rax),%eax
  400748:	0f b6 f0             	movzbl %al,%esi
  40074b:	bf 1b 09 40 00       	mov    $0x40091b,%edi
  400750:	b8 00 00 00 00       	mov    $0x0,%eax
  400755:	e8 56 fe ff ff       	callq  4005b0 <printf@plt>
  40075a:	83 6d fc 01          	subl   $0x1,0xfffffffffffffffc(%rbp)
  40075e:	83 7d fc 00          	cmpl   $0x0,0xfffffffffffffffc(%rbp)
  400762:	79 d8                	jns    40073c <_Z10print_addrPv+0x34>
  400764:	bf 0a 00 00 00       	mov    $0xa,%edi
  400769:	e8 52 fe ff ff       	callq  4005c0 <putchar@plt>
  40076e:	c9                   	leaveq 
  40076f:	c3                   	retq   

0000000000400770 <main>:
  400770:	55                   	push   %rbp
  400771:	48 89 e5             	mov    %rsp,%rbp
  400774:	48 83 ec 30          	sub    $0x30,%rsp
  400778:	be 01 00 00 00       	mov    $0x1,%esi
  40077d:	bf 20 09 40 00       	mov    $0x400920,%edi
  400782:	e8 79 fe ff ff       	callq  400600 <dlopen@plt>
  400787:	48 89 45 e8          	mov    %rax,0xffffffffffffffe8(%rbp)
  40078b:	48 83 7d e8 00       	cmpq   $0x0,0xffffffffffffffe8(%rbp)
  400790:	0f 95 c0             	setne  %al
  400793:	84 c0                	test   %al,%al
  400795:	74 65                	je     4007fc <main+0x8c>
  400797:	48 8b 7d e8          	mov    0xffffffffffffffe8(%rbp),%rdi
  40079b:	be 31 09 40 00       	mov    $0x400931,%esi
  4007a0:	e8 6b fe ff ff       	callq  400610 <dlsym@plt>
  4007a5:	48 89 45 f0          	mov    %rax,0xfffffffffffffff0(%rbp)
  4007a9:	48 8b 55 f0          	mov    0xfffffffffffffff0(%rbp),%rdx
  4007ad:	bf 38 09 40 00       	mov    $0x400938,%edi
  4007b2:	b8 00 00 00 00       	mov    $0x0,%eax
  4007b7:	ff d2                	callq  *%rdx
  4007b9:	48 8b 7d e8          	mov    0xffffffffffffffe8(%rbp),%rdi
  4007bd:	e8 2e fe ff ff       	callq  4005f0 <dlclose@plt>
  4007c2:	bf 45 09 40 00       	mov    $0x400945,%edi
  4007c7:	b8 00 00 00 00       	mov    $0x0,%eax
  4007cc:	e8 df fd ff ff       	callq  4005b0 <printf@plt>
  4007d1:	48 8b 7d f0          	mov    0xfffffffffffffff0(%rbp),%rdi
  4007d5:	e8 2e ff ff ff       	callq  400708 <_Z10print_addrPv>
  4007da:	bf 5f 09 40 00       	mov    $0x40095f,%edi
  4007df:	b8 00 00 00 00       	mov    $0x0,%eax
  4007e4:	e8 c7 fd ff ff       	callq  4005b0 <printf@plt>
  4007e9:	bf b0 05 40 00       	mov    $0x4005b0,%edi
  4007ee:	e8 15 ff ff ff       	callq  400708 <_Z10print_addrPv>
  4007f3:	c7 45 dc 00 00 00 00 	movl   $0x0,0xffffffffffffffdc(%rbp)
  4007fa:	eb 1e                	jmp    40081a <main+0xaa>
  4007fc:	e8 df fd ff ff       	callq  4005e0 <dlerror@plt>
  400801:	48 89 45 f8          	mov    %rax,0xfffffffffffffff8(%rbp)
  400805:	48 8b 7d f8          	mov    0xfffffffffffffff8(%rbp),%rdi
  400809:	b8 00 00 00 00       	mov    $0x0,%eax
  40080e:	e8 9d fd ff ff       	callq  4005b0 <printf@plt>
  400813:	c7 45 dc fe ff ff ff 	movl   $0xfffffffe,0xffffffffffffffdc(%rbp)
  40081a:	8b 45 dc             	mov    0xffffffffffffffdc(%rbp),%eax
  40081d:	c9                   	leaveq 
  40081e:	c3                   	retq   
  40081f:	90                   	nop    

0000000000400820 <__libc_csu_fini>:
  400820:	f3 c3                	repz retq 
  400822:	0f 1f 80 00 00 00 00 	nopl   0x0(%rax)
  400829:	0f 1f 80 00 00 00 00 	nopl   0x0(%rax)

0000000000400830 <__libc_csu_init>:
  400830:	4c 89 64 24 e0       	mov    %r12,0xffffffffffffffe0(%rsp)
  400835:	4c 89 6c 24 e8       	mov    %r13,0xffffffffffffffe8(%rsp)
  40083a:	4c 8d 25 23 02 20 00 	lea    2097699(%rip),%r12        # 600a64 <__fini_array_end>
  400841:	4c 89 74 24 f0       	mov    %r14,0xfffffffffffffff0(%rsp)
  400846:	4c 89 7c 24 f8       	mov    %r15,0xfffffffffffffff8(%rsp)
  40084b:	49 89 f6             	mov    %rsi,%r14
  40084e:	48 89 5c 24 d0       	mov    %rbx,0xffffffffffffffd0(%rsp)
  400853:	48 89 6c 24 d8       	mov    %rbp,0xffffffffffffffd8(%rsp)
  400858:	48 83 ec 38          	sub    $0x38,%rsp
  40085c:	41 89 ff             	mov    %edi,%r15d
  40085f:	49 89 d5             	mov    %rdx,%r13
  400862:	e8 21 fd ff ff       	callq  400588 <_init>
  400867:	48 8d 05 f6 01 20 00 	lea    2097654(%rip),%rax        # 600a64 <__fini_array_end>
  40086e:	49 29 c4             	sub    %rax,%r12
  400871:	49 c1 fc 03          	sar    $0x3,%r12
  400875:	4d 85 e4             	test   %r12,%r12
  400878:	74 1e                	je     400898 <__libc_csu_init+0x68>
  40087a:	31 ed                	xor    %ebp,%ebp
  40087c:	48 89 c3             	mov    %rax,%rbx
  40087f:	90                   	nop    
  400880:	48 83 c5 01          	add    $0x1,%rbp
  400884:	4c 89 ea             	mov    %r13,%rdx
  400887:	4c 89 f6             	mov    %r14,%rsi
  40088a:	44 89 ff             	mov    %r15d,%edi
  40088d:	ff 13                	callq  *(%rbx)
  40088f:	48 83 c3 08          	add    $0x8,%rbx
  400893:	49 39 ec             	cmp    %rbp,%r12
  400896:	75 e8                	jne    400880 <__libc_csu_init+0x50>
  400898:	48 8b 5c 24 08       	mov    0x8(%rsp),%rbx
  40089d:	48 8b 6c 24 10       	mov    0x10(%rsp),%rbp
  4008a2:	4c 8b 64 24 18       	mov    0x18(%rsp),%r12
  4008a7:	4c 8b 6c 24 20       	mov    0x20(%rsp),%r13
  4008ac:	4c 8b 74 24 28       	mov    0x28(%rsp),%r14
  4008b1:	4c 8b 7c 24 30       	mov    0x30(%rsp),%r15
  4008b6:	48 83 c4 38          	add    $0x38,%rsp
  4008ba:	c3                   	retq   
  4008bb:	90                   	nop    
  4008bc:	90                   	nop    
  4008bd:	90                   	nop    
  4008be:	90                   	nop    
  4008bf:	90                   	nop    

00000000004008c0 <__do_global_ctors_aux>:
  4008c0:	55                   	push   %rbp
  4008c1:	48 89 e5             	mov    %rsp,%rbp
  4008c4:	53                   	push   %rbx
  4008c5:	bb 68 0a 60 00       	mov    $0x600a68,%ebx
  4008ca:	48 83 ec 08          	sub    $0x8,%rsp
  4008ce:	48 8b 05 93 01 20 00 	mov    2097555(%rip),%rax        # 600a68 <__CTOR_LIST__>
  4008d5:	48 83 f8 ff          	cmp    $0xffffffffffffffff,%rax
  4008d9:	74 14                	je     4008ef <__do_global_ctors_aux+0x2f>
  4008db:	0f 1f 44 00 00       	nopl   0x0(%rax,%rax,1)
  4008e0:	48 83 eb 08          	sub    $0x8,%rbx
  4008e4:	ff d0                	callq  *%rax
  4008e6:	48 8b 03             	mov    (%rbx),%rax
  4008e9:	48 83 f8 ff          	cmp    $0xffffffffffffffff,%rax
  4008ed:	75 f1                	jne    4008e0 <__do_global_ctors_aux+0x20>
  4008ef:	48 83 c4 08          	add    $0x8,%rsp
  4008f3:	5b                   	pop    %rbx
  4008f4:	c9                   	leaveq 
  4008f5:	c3                   	retq   
  4008f6:	90                   	nop    
  4008f7:	90                   	nop    
Disassembly of section .fini:

00000000004008f8 <_fini>:
  4008f8:	48 83 ec 08          	sub    $0x8,%rsp
  4008fc:	e8 7f fd ff ff       	callq  400680 <__do_global_dtors_aux>
  400901:	48 83 c4 08          	add    $0x8,%rsp
  400905:	c3                   	retq   
