
/lib/ld-2.9.so:     file format elf32-i386


Disassembly of section .plt:

00000778 <__libc_memalign@plt-0x10>:
 778:	ff b3 04 00 00 00    	pushl  0x4(%ebx)
 77e:	ff a3 08 00 00 00    	jmp    *0x8(%ebx)
 784:	00 00                	add    %al,(%eax)
	...

00000788 <__libc_memalign@plt>:
 788:	ff a3 0c 00 00 00    	jmp    *0xc(%ebx)
 78e:	68 00 00 00 00       	push   $0x0
 793:	e9 e0 ff ff ff       	jmp    778 <GLIBC_2.0+0x778>

00000798 <malloc@plt>:
 798:	ff a3 10 00 00 00    	jmp    *0x10(%ebx)
 79e:	68 08 00 00 00       	push   $0x8
 7a3:	e9 d0 ff ff ff       	jmp    778 <GLIBC_2.0+0x778>

000007a8 <calloc@plt>:
 7a8:	ff a3 14 00 00 00    	jmp    *0x14(%ebx)
 7ae:	68 10 00 00 00       	push   $0x10
 7b3:	e9 c0 ff ff ff       	jmp    778 <GLIBC_2.0+0x778>

000007b8 <realloc@plt>:
 7b8:	ff a3 18 00 00 00    	jmp    *0x18(%ebx)
 7be:	68 18 00 00 00       	push   $0x18
 7c3:	e9 b0 ff ff ff       	jmp    778 <GLIBC_2.0+0x778>

000007c8 <___tls_get_addr@plt>:
 7c8:	ff a3 1c 00 00 00    	jmp    *0x1c(%ebx)
 7ce:	68 20 00 00 00       	push   $0x20
 7d3:	e9 a0 ff ff ff       	jmp    778 <GLIBC_2.0+0x778>

000007d8 <free@plt>:
 7d8:	ff a3 20 00 00 00    	jmp    *0x20(%ebx)
 7de:	68 28 00 00 00       	push   $0x28
 7e3:	e9 90 ff ff ff       	jmp    778 <GLIBC_2.0+0x778>

Disassembly of section .text:

000007f0 <_dl_rtld_di_serinfo-0x6af0>:
     7f0:	cd 80                	int    $0x80
     7f2:	c3                   	ret    
     7f3:	8d b6 00 00 00 00    	lea    0x0(%esi),%esi
     7f9:	8d bc 27 00 00 00 00 	lea    0x0(%edi,%eiz,1),%edi
     800:	8b 1c 24             	mov    (%esp),%ebx
     803:	c3                   	ret    
     804:	8d b6 00 00 00 00    	lea    0x0(%esi),%esi
     80a:	8d bf 00 00 00 00    	lea    0x0(%edi),%edi
     810:	89 e0                	mov    %esp,%eax
     812:	e8 29 02 00 00       	call   a40 <free@plt+0x268>
     817:	89 c7                	mov    %eax,%edi
     819:	e8 e2 ff ff ff       	call   800 <free@plt+0x28>
     81e:	81 c3 d6 c7 01 00    	add    $0x1c7d6,%ebx
     824:	8b 83 00 ff ff ff    	mov    -0x100(%ebx),%eax
     82a:	5a                   	pop    %edx
     82b:	8d 24 84             	lea    (%esp,%eax,4),%esp
     82e:	29 c2                	sub    %eax,%edx
     830:	52                   	push   %edx
     831:	8b 83 2c 00 00 00    	mov    0x2c(%ebx),%eax
     837:	8d 74 94 08          	lea    0x8(%esp,%edx,4),%esi
     83b:	8d 4c 24 04          	lea    0x4(%esp),%ecx
     83f:	89 e5                	mov    %esp,%ebp
     841:	83 e4 f0             	and    $0xfffffff0,%esp
     844:	50                   	push   %eax
     845:	50                   	push   %eax
     846:	55                   	push   %ebp
     847:	56                   	push   %esi
     848:	31 ed                	xor    %ebp,%ebp
     84a:	e8 61 dc 00 00       	call   e4b0 <_dl_rtld_di_serinfo+0x71d0>
     84f:	8d 93 8c 18 ff ff    	lea    -0xe774(%ebx),%edx
     855:	8b 24 24             	mov    (%esp),%esp
     858:	ff e7                	jmp    *%edi
     85a:	8d b6 00 00 00 00    	lea    0x0(%esi),%esi
     860:	e8 c2 67 01 00       	call   17027 <calloc+0x1e77>
     865:	81 c1 8f c7 01 00    	add    $0x1c78f,%ecx
     86b:	55                   	push   %ebp
     86c:	89 e5                	mov    %esp,%ebp
     86e:	5d                   	pop    %ebp
     86f:	8d 81 d0 05 00 00    	lea    0x5d0(%ecx),%eax
     875:	c3                   	ret    
     876:	8d 76 00             	lea    0x0(%esi),%esi
     879:	8d bc 27 00 00 00 00 	lea    0x0(%edi,%eiz,1),%edi
     880:	55                   	push   %ebp
     881:	89 e5                	mov    %esp,%ebp
     883:	8b 45 08             	mov    0x8(%ebp),%eax
     886:	83 40 04 01          	addl   $0x1,0x4(%eax)
     88a:	5d                   	pop    %ebp
     88b:	c3                   	ret    
     88c:	8d 74 26 00          	lea    0x0(%esi,%eiz,1),%esi
     890:	55                   	push   %ebp
     891:	89 e5                	mov    %esp,%ebp
     893:	8b 45 08             	mov    0x8(%ebp),%eax
     896:	83 68 04 01          	subl   $0x1,0x4(%eax)
     89a:	5d                   	pop    %ebp
     89b:	c3                   	ret    
     89c:	8d 74 26 00          	lea    0x0(%esi,%eiz,1),%esi
     8a0:	55                   	push   %ebp
     8a1:	89 e5                	mov    %esp,%ebp
     8a3:	57                   	push   %edi
     8a4:	56                   	push   %esi
     8a5:	31 f6                	xor    %esi,%esi
     8a7:	53                   	push   %ebx
     8a8:	e8 7e 67 01 00       	call   1702b <calloc+0x1e7b>
     8ad:	81 c3 47 c7 01 00    	add    $0x1c747,%ebx
     8b3:	83 ec 1c             	sub    $0x1c,%esp
     8b6:	8d 83 2c 00 00 00    	lea    0x2c(%ebx),%eax
     8bc:	8d 93 6c 02 00 00    	lea    0x26c(%ebx),%edx
     8c2:	89 45 f0             	mov    %eax,-0x10(%ebp)
     8c5:	89 55 e8             	mov    %edx,-0x18(%ebp)
     8c8:	8b 55 f0             	mov    -0x10(%ebp),%edx
     8cb:	8b 02                	mov    (%edx),%eax
     8cd:	85 c0                	test   %eax,%eax
     8cf:	74 54                	je     925 <free@plt+0x14d>
     8d1:	8b 90 60 01 00 00    	mov    0x160(%eax),%edx
     8d7:	85 d2                	test   %edx,%edx
     8d9:	89 55 ec             	mov    %edx,-0x14(%ebp)
     8dc:	74 47                	je     925 <free@plt+0x14d>
     8de:	8b b8 5c 01 00 00    	mov    0x15c(%eax),%edi
     8e4:	31 d2                	xor    %edx,%edx
     8e6:	eb 22                	jmp    90a <free@plt+0x132>
     8e8:	8b 88 bc 00 00 00    	mov    0xbc(%eax),%ecx
     8ee:	85 c9                	test   %ecx,%ecx
     8f0:	74 03                	je     8f5 <free@plt+0x11d>
     8f2:	03 71 04             	add    0x4(%ecx),%esi
     8f5:	8b 80 c0 00 00 00    	mov    0xc0(%eax),%eax
     8fb:	85 c0                	test   %eax,%eax
     8fd:	74 03                	je     902 <free@plt+0x12a>
     8ff:	03 70 04             	add    0x4(%eax),%esi
     902:	83 c2 01             	add    $0x1,%edx
     905:	3b 55 ec             	cmp    -0x14(%ebp),%edx
     908:	73 1b                	jae    925 <free@plt+0x14d>
     90a:	8b 04 97             	mov    (%edi,%edx,4),%eax
     90d:	8b 08                	mov    (%eax),%ecx
     90f:	85 c9                	test   %ecx,%ecx
     911:	75 d5                	jne    8e8 <free@plt+0x110>
     913:	8b 88 1c 01 00 00    	mov    0x11c(%eax),%ecx
     919:	85 c9                	test   %ecx,%ecx
     91b:	74 d8                	je     8f5 <free@plt+0x11d>
     91d:	83 c2 01             	add    $0x1,%edx
     920:	3b 55 ec             	cmp    -0x14(%ebp),%edx
     923:	72 e5                	jb     90a <free@plt+0x132>
     925:	83 45 f0 24          	addl   $0x24,-0x10(%ebp)
     929:	8b 45 e8             	mov    -0x18(%ebp),%eax
     92c:	39 45 f0             	cmp    %eax,-0x10(%ebp)
     92f:	75 97                	jne    8c8 <free@plt+0xf0>
     931:	89 74 24 0c          	mov    %esi,0xc(%esp)
     935:	8b 83 a0 02 00 00    	mov    0x2a0(%ebx),%eax
     93b:	89 44 24 08          	mov    %eax,0x8(%esp)
     93f:	8b 83 9c 02 00 00    	mov    0x29c(%ebx),%eax
     945:	89 44 24 04          	mov    %eax,0x4(%esp)
     949:	8d 83 04 af ff ff    	lea    -0x50fc(%ebx),%eax
     94f:	89 04 24             	mov    %eax,(%esp)
     952:	e8 f9 e9 00 00       	call   f350 <_dl_debug_state+0x640>
     957:	83 c4 1c             	add    $0x1c,%esp
     95a:	5b                   	pop    %ebx
     95b:	5e                   	pop    %esi
     95c:	5f                   	pop    %edi
     95d:	5d                   	pop    %ebp
     95e:	c3                   	ret    
     95f:	90                   	nop    
     960:	55                   	push   %ebp
     961:	89 e5                	mov    %esp,%ebp
     963:	56                   	push   %esi
     964:	83 ec 18             	sub    $0x18,%esp
     967:	8b 75 08             	mov    0x8(%ebp),%esi
     96a:	8d 4d f8             	lea    -0x8(%ebp),%ecx
     96d:	c7 45 f8 00 00 00 00 	movl   $0x0,-0x8(%ebp)
     974:	8b 56 04             	mov    0x4(%esi),%edx
     977:	c7 46 08 00 00 00 00 	movl   $0x0,0x8(%esi)
     97e:	c7 44 24 10 00 00 00 	movl   $0x0,0x10(%esp)
     985:	00 
     986:	c7 44 24 0c 02 00 00 	movl   $0x2,0xc(%esp)
     98d:	00 
     98e:	8d 82 d0 01 00 00    	lea    0x1d0(%edx),%eax
     994:	c7 44 24 08 00 00 00 	movl   $0x0,0x8(%esp)
     99b:	00 
     99c:	c7 44 24 04 00 00 00 	movl   $0x0,0x4(%esp)
     9a3:	00 
     9a4:	89 04 24             	mov    %eax,(%esp)
     9a7:	8b 06                	mov    (%esi),%eax
     9a9:	e8 f2 87 00 00       	call   91a0 <_dl_rtld_di_serinfo+0x1ec0>
     9ae:	8b 4d f8             	mov    -0x8(%ebp),%ecx
     9b1:	83 ec 14             	sub    $0x14,%esp
     9b4:	85 c9                	test   %ecx,%ecx
     9b6:	74 0e                	je     9c6 <free@plt+0x1ee>
     9b8:	31 d2                	xor    %edx,%edx
     9ba:	85 c0                	test   %eax,%eax
     9bc:	74 02                	je     9c0 <free@plt+0x1e8>
     9be:	8b 10                	mov    (%eax),%edx
     9c0:	03 51 04             	add    0x4(%ecx),%edx
     9c3:	89 56 08             	mov    %edx,0x8(%esi)
     9c6:	8b 75 fc             	mov    -0x4(%ebp),%esi
     9c9:	c9                   	leave  
     9ca:	c3                   	ret    
     9cb:	90                   	nop    
     9cc:	8d 74 26 00          	lea    0x0(%esi,%eiz,1),%esi
     9d0:	55                   	push   %ebp
     9d1:	89 e5                	mov    %esp,%ebp
     9d3:	83 ec 24             	sub    $0x24,%esp
     9d6:	89 5d f8             	mov    %ebx,-0x8(%ebp)
     9d9:	e8 4d 66 01 00       	call   1702b <calloc+0x1e7b>
     9de:	81 c3 16 c6 01 00    	add    $0x1c616,%ebx
     9e4:	89 75 fc             	mov    %esi,-0x4(%ebp)
     9e7:	8b 75 08             	mov    0x8(%ebp),%esi
     9ea:	8b 83 ec ff ff ff    	mov    -0x14(%ebx),%eax
     9f0:	8b 00                	mov    (%eax),%eax
     9f2:	c7 44 24 0c ff ff ff 	movl   $0xffffffff,0xc(%esp)
     9f9:	ff 
     9fa:	c7 44 24 04 01 00 00 	movl   $0x88000001,0x4(%esp)
     a01:	88 
     a02:	89 44 24 18          	mov    %eax,0x18(%esp)
     a06:	8b 83 ac fc ff ff    	mov    -0x354(%ebx),%eax
     a0c:	89 44 24 14          	mov    %eax,0x14(%esp)
     a10:	8b 83 fc fe ff ff    	mov    -0x104(%ebx),%eax
     a16:	89 44 24 10          	mov    %eax,0x10(%esp)
     a1a:	8d 83 8c 4d fe ff    	lea    -0x1b274(%ebx),%eax
     a20:	89 44 24 08          	mov    %eax,0x8(%esp)
     a24:	8b 06                	mov    (%esi),%eax
     a26:	89 04 24             	mov    %eax,(%esp)
     a29:	e8 62 11 01 00       	call   11b90 <_dl_make_stack_executable+0x350>
     a2e:	89 46 04             	mov    %eax,0x4(%esi)
     a31:	8b 5d f8             	mov    -0x8(%ebp),%ebx
     a34:	8b 75 fc             	mov    -0x4(%ebp),%esi
     a37:	89 ec                	mov    %ebp,%esp
     a39:	5d                   	pop    %ebp
     a3a:	c3                   	ret    
     a3b:	90                   	nop    
     a3c:	8d 74 26 00          	lea    0x0(%esi,%eiz,1),%esi
     a40:	55                   	push   %ebp
     a41:	89 e5                	mov    %esp,%ebp
     a43:	57                   	push   %edi
     a44:	56                   	push   %esi
     a45:	53                   	push   %ebx
     a46:	e8 e0 65 01 00       	call   1702b <calloc+0x1e7b>
     a4b:	81 c3 a9 c5 01 00    	add    $0x1c5a9,%ebx
     a51:	83 ec 28             	sub    $0x28,%esp
     a54:	89 45 e0             	mov    %eax,-0x20(%ebp)
     a57:	8b 93 00 00 00 00    	mov    0x0(%ebx),%edx
     a5d:	8d 83 34 ff ff ff    	lea    -0xcc(%ebx),%eax
     a63:	29 d0                	sub    %edx,%eax
     a65:	8d 0c 10             	lea    (%eax,%edx,1),%ecx
     a68:	89 83 ac 02 00 00    	mov    %eax,0x2ac(%ebx)
     a6e:	8b 11                	mov    (%ecx),%edx
     a70:	89 8b b4 02 00 00    	mov    %ecx,0x2b4(%ebx)
     a76:	85 d2                	test   %edx,%edx
     a78:	74 46                	je     ac0 <free@plt+0x2e8>
     a7a:	8d b3 2c 00 00 00    	lea    0x2c(%ebx),%esi
     a80:	eb 16                	jmp    a98 <free@plt+0x2c0>
     a82:	8d b6 00 00 00 00    	lea    0x0(%esi),%esi
     a88:	89 8c 96 a0 02 00 00 	mov    %ecx,0x2a0(%esi,%edx,4)
     a8f:	83 c1 08             	add    $0x8,%ecx
     a92:	8b 11                	mov    (%ecx),%edx
     a94:	85 d2                	test   %edx,%edx
     a96:	74 28                	je     ac0 <free@plt+0x2e8>
     a98:	83 fa 21             	cmp    $0x21,%edx
     a9b:	76 eb                	jbe    a88 <free@plt+0x2b0>
     a9d:	b8 ff ff ff 6f       	mov    $0x6fffffff,%eax
     aa2:	29 d0                	sub    %edx,%eax
     aa4:	83 f8 0f             	cmp    $0xf,%eax
     aa7:	0f 87 93 01 00 00    	ja     c40 <free@plt+0x468>
     aad:	b8 c9 00 00 70       	mov    $0x700000c9,%eax
     ab2:	29 d0                	sub    %edx,%eax
     ab4:	89 0c 86             	mov    %ecx,(%esi,%eax,4)
     ab7:	83 c1 08             	add    $0x8,%ecx
     aba:	8b 11                	mov    (%ecx),%edx
     abc:	85 d2                	test   %edx,%edx
     abe:	75 d8                	jne    a98 <free@plt+0x2c0>
     ac0:	8b 93 ac 02 00 00    	mov    0x2ac(%ebx),%edx
     ac6:	85 d2                	test   %edx,%edx
     ac8:	74 68                	je     b32 <free@plt+0x35a>
     aca:	8b 83 dc 02 00 00    	mov    0x2dc(%ebx),%eax
     ad0:	85 c0                	test   %eax,%eax
     ad2:	74 03                	je     ad7 <free@plt+0x2ff>
     ad4:	01 50 04             	add    %edx,0x4(%eax)
     ad7:	8b 83 d8 02 00 00    	mov    0x2d8(%ebx),%eax
     add:	85 c0                	test   %eax,%eax
     adf:	74 03                	je     ae4 <free@plt+0x30c>
     ae1:	01 50 04             	add    %edx,0x4(%eax)
     ae4:	8b 83 e0 02 00 00    	mov    0x2e0(%ebx),%eax
     aea:	85 c0                	test   %eax,%eax
     aec:	74 03                	je     af1 <free@plt+0x319>
     aee:	01 50 04             	add    %edx,0x4(%eax)
     af1:	8b 83 e4 02 00 00    	mov    0x2e4(%ebx),%eax
     af7:	85 c0                	test   %eax,%eax
     af9:	74 03                	je     afe <free@plt+0x326>
     afb:	01 50 04             	add    %edx,0x4(%eax)
     afe:	8b 83 10 03 00 00    	mov    0x310(%ebx),%eax
     b04:	85 c0                	test   %eax,%eax
     b06:	74 03                	je     b0b <free@plt+0x333>
     b08:	01 50 04             	add    %edx,0x4(%eax)
     b0b:	8b 83 28 03 00 00    	mov    0x328(%ebx),%eax
     b11:	85 c0                	test   %eax,%eax
     b13:	74 03                	je     b18 <free@plt+0x340>
     b15:	01 50 04             	add    %edx,0x4(%eax)
     b18:	8b 83 90 03 00 00    	mov    0x390(%ebx),%eax
     b1e:	85 c0                	test   %eax,%eax
     b20:	74 03                	je     b25 <free@plt+0x34d>
     b22:	01 50 04             	add    %edx,0x4(%eax)
     b25:	8b 83 f8 03 00 00    	mov    0x3f8(%ebx),%eax
     b2b:	85 c0                	test   %eax,%eax
     b2d:	74 03                	je     b32 <free@plt+0x35a>
     b2f:	01 50 04             	add    %edx,0x4(%eax)
     b32:	8b 8b 1c 03 00 00    	mov    0x31c(%ebx),%ecx
     b38:	85 c9                	test   %ecx,%ecx
     b3a:	74 0a                	je     b46 <free@plt+0x36e>
     b3c:	83 79 04 11          	cmpl   $0x11,0x4(%ecx)
     b40:	0f 85 cf 02 00 00    	jne    e15 <free@plt+0x63d>
     b46:	8b 93 10 03 00 00    	mov    0x310(%ebx),%edx
     b4c:	85 d2                	test   %edx,%edx
     b4e:	74 10                	je     b60 <free@plt+0x388>
     b50:	8b 83 18 03 00 00    	mov    0x318(%ebx),%eax
     b56:	83 78 04 08          	cmpl   $0x8,0x4(%eax)
     b5a:	0f 85 09 03 00 00    	jne    e69 <free@plt+0x691>
     b60:	8b 83 64 03 00 00    	mov    0x364(%ebx),%eax
     b66:	85 c0                	test   %eax,%eax
     b68:	74 0a                	je     b74 <free@plt+0x39c>
     b6a:	83 78 04 01          	cmpl   $0x1,0x4(%eax)
     b6e:	0f 85 cb 02 00 00    	jne    e3f <free@plt+0x667>
     b74:	8b 83 44 03 00 00    	mov    0x344(%ebx),%eax
     b7a:	85 c0                	test   %eax,%eax
     b7c:	74 0a                	je     b88 <free@plt+0x3b0>
     b7e:	83 78 04 08          	cmpl   $0x8,0x4(%eax)
     b82:	0f 85 0b 03 00 00    	jne    e93 <free@plt+0x6bb>
     b88:	8b 83 40 03 00 00    	mov    0x340(%ebx),%eax
     b8e:	85 c0                	test   %eax,%eax
     b90:	0f 85 55 02 00 00    	jne    deb <free@plt+0x613>
     b96:	8b 83 08 03 00 00    	mov    0x308(%ebx),%eax
     b9c:	85 c0                	test   %eax,%eax
     b9e:	0f 85 1d 02 00 00    	jne    dc1 <free@plt+0x5e9>
     ba4:	8b bb ac 02 00 00    	mov    0x2ac(%ebx),%edi
     baa:	85 ff                	test   %edi,%edi
     bac:	0f 85 c6 00 00 00    	jne    c78 <free@plt+0x4a0>
     bb2:	8b 83 c8 03 00 00    	mov    0x3c8(%ebx),%eax
     bb8:	85 c0                	test   %eax,%eax
     bba:	0f 84 b8 00 00 00    	je     c78 <free@plt+0x4a0>
     bc0:	80 8b 40 04 00 00 04 	orb    $0x4,0x440(%ebx)
     bc7:	8d 83 ac 02 00 00    	lea    0x2ac(%ebx),%eax
     bcd:	e8 6e 7f 00 00       	call   8b40 <_dl_rtld_di_serinfo+0x1860>
     bd2:	8d 83 ac 02 00 00    	lea    0x2ac(%ebx),%eax
     bd8:	8b 75 e0             	mov    -0x20(%ebp),%esi
     bdb:	89 83 c0 02 00 00    	mov    %eax,0x2c0(%ebx)
     be1:	8d 83 0c 30 fe ff    	lea    -0x1cff4(%ebx),%eax
     be7:	89 83 58 04 00 00    	mov    %eax,0x458(%ebx)
     bed:	8d 83 78 06 00 00    	lea    0x678(%ebx),%eax
     bf3:	89 83 5c 04 00 00    	mov    %eax,0x45c(%ebx)
     bf9:	8d 83 5e a1 ff ff    	lea    -0x5ea2(%ebx),%eax
     bff:	89 83 60 04 00 00    	mov    %eax,0x460(%ebx)
     c05:	8d 83 8c 4d fe ff    	lea    -0x1b274(%ebx),%eax
     c0b:	89 34 24             	mov    %esi,(%esp)
     c0e:	89 ab 2c ff ff ff    	mov    %ebp,-0xd4(%ebx)
     c14:	89 44 24 04          	mov    %eax,0x4(%esp)
     c18:	e8 63 3a 01 00       	call   14680 <_dl_make_stack_executable+0x2e40>
     c1d:	80 bb cc fc ff ff 00 	cmpb   $0x0,-0x334(%ebx)
     c24:	89 c6                	mov    %eax,%esi
     c26:	79 07                	jns    c2f <free@plt+0x457>
     c28:	31 c0                	xor    %eax,%eax
     c2a:	e8 71 fc ff ff       	call   8a0 <free@plt+0xc8>
     c2f:	83 c4 28             	add    $0x28,%esp
     c32:	89 f0                	mov    %esi,%eax
     c34:	5b                   	pop    %ebx
     c35:	5e                   	pop    %esi
     c36:	5f                   	pop    %edi
     c37:	5d                   	pop    %ebp
     c38:	c3                   	ret    
     c39:	8d b4 26 00 00 00 00 	lea    0x0(%esi,%eiz,1),%esi
     c40:	8d 04 12             	lea    (%edx,%edx,1),%eax
     c43:	d1 f8                	sar    %eax
     c45:	83 f8 fc             	cmp    $0xfffffffc,%eax
     c48:	76 0e                	jbe    c58 <free@plt+0x480>
     c4a:	f7 d0                	not    %eax
     c4c:	89 8c 86 68 03 00 00 	mov    %ecx,0x368(%esi,%eax,4)
     c53:	e9 37 fe ff ff       	jmp    a8f <free@plt+0x2b7>
     c58:	b8 ff fd ff 6f       	mov    $0x6ffffdff,%eax
     c5d:	29 d0                	sub    %edx,%eax
     c5f:	83 f8 0b             	cmp    $0xb,%eax
     c62:	0f 87 10 01 00 00    	ja     d78 <free@plt+0x5a0>
     c68:	b8 dc fe ff 6f       	mov    $0x6ffffedc,%eax
     c6d:	29 d0                	sub    %edx,%eax
     c6f:	89 0c 86             	mov    %ecx,(%esi,%eax,4)
     c72:	e9 18 fe ff ff       	jmp    a8f <free@plt+0x2b7>
     c77:	90                   	nop    
     c78:	31 f6                	xor    %esi,%esi
     c7a:	85 d2                	test   %edx,%edx
     c7c:	c7 45 f0 00 00 00 00 	movl   $0x0,-0x10(%ebp)
     c83:	74 0f                	je     c94 <free@plt+0x4bc>
     c85:	8b 83 14 03 00 00    	mov    0x314(%ebx),%eax
     c8b:	8b 72 04             	mov    0x4(%edx),%esi
     c8e:	8b 40 04             	mov    0x4(%eax),%eax
     c91:	89 45 f0             	mov    %eax,-0x10(%ebp)
     c94:	85 c9                	test   %ecx,%ecx
     c96:	74 21                	je     cb9 <free@plt+0x4e1>
     c98:	8b 45 f0             	mov    -0x10(%ebp),%eax
     c9b:	8d 14 06             	lea    (%esi,%eax,1),%edx
     c9e:	8b 83 28 03 00 00    	mov    0x328(%ebx),%eax
     ca4:	3b 50 04             	cmp    0x4(%eax),%edx
     ca7:	0f 85 10 02 00 00    	jne    ebd <free@plt+0x6e5>
     cad:	8b 83 d4 02 00 00    	mov    0x2d4(%ebx),%eax
     cb3:	8b 50 04             	mov    0x4(%eax),%edx
     cb6:	01 55 f0             	add    %edx,-0x10(%ebp)
     cb9:	8b 83 e4 02 00 00    	mov    0x2e4(%ebx),%eax
     cbf:	89 f1                	mov    %esi,%ecx
     cc1:	8b 93 68 03 00 00    	mov    0x368(%ebx),%edx
     cc7:	8b 40 04             	mov    0x4(%eax),%eax
     cca:	85 d2                	test   %edx,%edx
     ccc:	89 45 e4             	mov    %eax,-0x1c(%ebp)
     ccf:	74 42                	je     d13 <free@plt+0x53b>
     cd1:	8b 45 f0             	mov    -0x10(%ebp),%eax
     cd4:	8b 52 04             	mov    0x4(%edx),%edx
     cd7:	c1 e8 03             	shr    $0x3,%eax
     cda:	39 d0                	cmp    %edx,%eax
     cdc:	76 02                	jbe    ce0 <free@plt+0x508>
     cde:	89 d0                	mov    %edx,%eax
     ce0:	8d 14 c6             	lea    (%esi,%eax,8),%edx
     ce3:	39 d6                	cmp    %edx,%esi
     ce5:	73 2a                	jae    d11 <free@plt+0x539>
     ce7:	80 7e 04 08          	cmpb   $0x8,0x4(%esi)
     ceb:	8b 06                	mov    (%esi),%eax
     ced:	74 17                	je     d06 <free@plt+0x52e>
     cef:	e9 a3 00 00 00       	jmp    d97 <free@plt+0x5bf>
     cf4:	8d 74 26 00          	lea    0x0(%esi,%eiz,1),%esi
     cf8:	80 79 04 08          	cmpb   $0x8,0x4(%ecx)
     cfc:	8b 01                	mov    (%ecx),%eax
     cfe:	66 90                	xchg   %ax,%ax
     d00:	0f 85 91 00 00 00    	jne    d97 <free@plt+0x5bf>
     d06:	01 f8                	add    %edi,%eax
     d08:	83 c1 08             	add    $0x8,%ecx
     d0b:	01 38                	add    %edi,(%eax)
     d0d:	39 ca                	cmp    %ecx,%edx
     d0f:	77 e7                	ja     cf8 <free@plt+0x520>
     d11:	89 d1                	mov    %edx,%ecx
     d13:	8b 83 90 03 00 00    	mov    0x390(%ebx),%eax
     d19:	85 c0                	test   %eax,%eax
     d1b:	0f 84 c6 01 00 00    	je     ee7 <free@plt+0x70f>
     d21:	03 75 f0             	add    -0x10(%ebp),%esi
     d24:	39 ce                	cmp    %ecx,%esi
     d26:	89 75 e8             	mov    %esi,-0x18(%ebp)
     d29:	0f 86 91 fe ff ff    	jbe    bc0 <free@plt+0x3e8>
     d2f:	90                   	nop    
     d30:	8b 31                	mov    (%ecx),%esi
     d32:	8b 51 04             	mov    0x4(%ecx),%edx
     d35:	8b 83 ac 02 00 00    	mov    0x2ac(%ebx),%eax
     d3b:	89 75 ec             	mov    %esi,-0x14(%ebp)
     d3e:	8b 75 e4             	mov    -0x1c(%ebp),%esi
     d41:	89 45 dc             	mov    %eax,-0x24(%ebp)
     d44:	89 d0                	mov    %edx,%eax
     d46:	81 e2 ff 00 00 00    	and    $0xff,%edx
     d4c:	c1 e8 08             	shr    $0x8,%eax
     d4f:	83 ea 06             	sub    $0x6,%edx
     d52:	c1 e0 04             	shl    $0x4,%eax
     d55:	83 fa 01             	cmp    $0x1,%edx
     d58:	8b 44 06 04          	mov    0x4(%esi,%eax,1),%eax
     d5c:	77 09                	ja     d67 <free@plt+0x58f>
     d5e:	8b 55 ec             	mov    -0x14(%ebp),%edx
     d61:	03 45 dc             	add    -0x24(%ebp),%eax
     d64:	89 04 3a             	mov    %eax,(%edx,%edi,1)
     d67:	83 c1 08             	add    $0x8,%ecx
     d6a:	39 4d e8             	cmp    %ecx,-0x18(%ebp)
     d6d:	77 c1                	ja     d30 <free@plt+0x558>
     d6f:	e9 4c fe ff ff       	jmp    bc0 <free@plt+0x3e8>
     d74:	8d 74 26 00          	lea    0x0(%esi,%eiz,1),%esi
     d78:	b8 ff fe ff 6f       	mov    $0x6ffffeff,%eax
     d7d:	29 d0                	sub    %edx,%eax
     d7f:	83 f8 0a             	cmp    $0xa,%eax
     d82:	0f 87 07 fd ff ff    	ja     a8f <free@plt+0x2b7>
     d88:	b8 e8 ff ff 6f       	mov    $0x6fffffe8,%eax
     d8d:	29 d0                	sub    %edx,%eax
     d8f:	89 0c 86             	mov    %ecx,(%esi,%eax,4)
     d92:	e9 f8 fc ff ff       	jmp    a8f <free@plt+0x2b7>
     d97:	8d 83 94 d0 ff ff    	lea    -0x2f6c(%ebx),%eax
     d9d:	89 44 24 0c          	mov    %eax,0xc(%esp)
     da1:	8d 83 a1 cc ff ff    	lea    -0x335f(%ebx),%eax
     da7:	89 44 24 04          	mov    %eax,0x4(%esp)
     dab:	8d 83 be cc ff ff    	lea    -0x3342(%ebx),%eax
     db1:	c7 44 24 08 6a 02 00 	movl   $0x26a,0x8(%esp)
     db8:	00 
     db9:	89 04 24             	mov    %eax,(%esp)
     dbc:	e8 9f 3c 01 00       	call   14a60 <_dl_make_stack_executable+0x3220>
     dc1:	8d 83 6c d0 ff ff    	lea    -0x2f94(%ebx),%eax
     dc7:	89 44 24 0c          	mov    %eax,0xc(%esp)
     dcb:	8d 83 40 cc ff ff    	lea    -0x33c0(%ebx),%eax
     dd1:	89 44 24 04          	mov    %eax,0x4(%esp)
     dd5:	8d 83 82 cc ff ff    	lea    -0x337e(%ebx),%eax
     ddb:	c7 44 24 08 d1 00 00 	movl   $0xd1,0x8(%esp)
     de2:	00 
     de3:	89 04 24             	mov    %eax,(%esp)
     de6:	e8 75 3c 01 00       	call   14a60 <_dl_make_stack_executable+0x3220>
     deb:	8d 83 6c d0 ff ff    	lea    -0x2f94(%ebx),%eax
     df1:	89 44 24 0c          	mov    %eax,0xc(%esp)
     df5:	8d 83 40 cc ff ff    	lea    -0x33c0(%ebx),%eax
     dfb:	89 44 24 04          	mov    %eax,0x4(%esp)
     dff:	8d 83 6a cc ff ff    	lea    -0x3396(%ebx),%eax
     e05:	c7 44 24 08 d0 00 00 	movl   $0xd0,0x8(%esp)
     e0c:	00 
     e0d:	89 04 24             	mov    %eax,(%esp)
     e10:	e8 4b 3c 01 00       	call   14a60 <_dl_make_stack_executable+0x3220>
     e15:	8d 83 6c d0 ff ff    	lea    -0x2f94(%ebx),%eax
     e1b:	89 44 24 0c          	mov    %eax,0xc(%esp)
     e1f:	8d 83 40 cc ff ff    	lea    -0x33c0(%ebx),%eax
     e25:	89 44 24 04          	mov    %eax,0x4(%esp)
     e29:	8d 83 4f cc ff ff    	lea    -0x33b1(%ebx),%eax
     e2f:	c7 44 24 08 b9 00 00 	movl   $0xb9,0x8(%esp)
     e36:	00 
     e37:	89 04 24             	mov    %eax,(%esp)
     e3a:	e8 21 3c 01 00       	call   14a60 <_dl_make_stack_executable+0x3220>
     e3f:	8d 83 6c d0 ff ff    	lea    -0x2f94(%ebx),%eax
     e45:	89 44 24 0c          	mov    %eax,0xc(%esp)
     e49:	8d 83 40 cc ff ff    	lea    -0x33c0(%ebx),%eax
     e4f:	89 44 24 04          	mov    %eax,0x4(%esp)
     e53:	8d 83 b8 af ff ff    	lea    -0x5048(%ebx),%eax
     e59:	c7 44 24 08 cc 00 00 	movl   $0xcc,0x8(%esp)
     e60:	00 
     e61:	89 04 24             	mov    %eax,(%esp)
     e64:	e8 f7 3b 01 00       	call   14a60 <_dl_make_stack_executable+0x3220>
     e69:	8d 83 6c d0 ff ff    	lea    -0x2f94(%ebx),%eax
     e6f:	89 44 24 0c          	mov    %eax,0xc(%esp)
     e73:	8d 83 40 cc ff ff    	lea    -0x33c0(%ebx),%eax
     e79:	89 44 24 04          	mov    %eax,0x4(%esp)
     e7d:	8d 83 8c af ff ff    	lea    -0x5074(%ebx),%eax
     e83:	c7 44 24 08 c7 00 00 	movl   $0xc7,0x8(%esp)
     e8a:	00 
     e8b:	89 04 24             	mov    %eax,(%esp)
     e8e:	e8 cd 3b 01 00       	call   14a60 <_dl_make_stack_executable+0x3220>
     e93:	8d 83 6c d0 ff ff    	lea    -0x2f94(%ebx),%eax
     e99:	89 44 24 0c          	mov    %eax,0xc(%esp)
     e9d:	8d 83 40 cc ff ff    	lea    -0x33c0(%ebx),%eax
     ea3:	89 44 24 04          	mov    %eax,0x4(%esp)
     ea7:	8d 83 40 b0 ff ff    	lea    -0x4fc0(%ebx),%eax
     ead:	c7 44 24 08 ce 00 00 	movl   $0xce,0x8(%esp)
     eb4:	00 
     eb5:	89 04 24             	mov    %eax,(%esp)
     eb8:	e8 a3 3b 01 00       	call   14a60 <_dl_make_stack_executable+0x3220>
     ebd:	8d 83 62 d0 ff ff    	lea    -0x2f9e(%ebx),%eax
     ec3:	89 44 24 0c          	mov    %eax,0xc(%esp)
     ec7:	8d 83 9a cc ff ff    	lea    -0x3366(%ebx),%eax
     ecd:	89 44 24 04          	mov    %eax,0x4(%esp)
     ed1:	8d 83 80 b0 ff ff    	lea    -0x4f80(%ebx),%eax
     ed7:	c7 44 24 08 19 02 00 	movl   $0x219,0x8(%esp)
     ede:	00 
     edf:	89 04 24             	mov    %eax,(%esp)
     ee2:	e8 79 3b 01 00       	call   14a60 <_dl_make_stack_executable+0x3220>
     ee7:	8d 83 81 d0 ff ff    	lea    -0x2f7f(%ebx),%eax
     eed:	89 44 24 0c          	mov    %eax,0xc(%esp)
     ef1:	8d 83 dc cc ff ff    	lea    -0x3324(%ebx),%eax
     ef7:	89 44 24 04          	mov    %eax,0x4(%esp)
     efb:	8d 83 ac b0 ff ff    	lea    -0x4f54(%ebx),%eax
     f01:	c7 44 24 08 6d 00 00 	movl   $0x6d,0x8(%esp)
     f08:	00 
     f09:	89 04 24             	mov    %eax,(%esp)
     f0c:	e8 4f 3b 01 00       	call   14a60 <_dl_make_stack_executable+0x3220>
     f11:	eb 0d                	jmp    f20 <free@plt+0x748>
     f13:	90                   	nop    
     f14:	90                   	nop    
     f15:	90                   	nop    
     f16:	90                   	nop    
     f17:	90                   	nop    
     f18:	90                   	nop    
     f19:	90                   	nop    
     f1a:	90                   	nop    
     f1b:	90                   	nop    
     f1c:	90                   	nop    
     f1d:	90                   	nop    
     f1e:	90                   	nop    
     f1f:	90                   	nop    
     f20:	55                   	push   %ebp
     f21:	89 e5                	mov    %esp,%ebp
     f23:	83 ec 40             	sub    $0x40,%esp
     f26:	89 5d f4             	mov    %ebx,-0xc(%ebp)
     f29:	8d 4d f3             	lea    -0xd(%ebp),%ecx
     f2c:	e8 fa 60 01 00       	call   1702b <calloc+0x1e7b>
     f31:	81 c3 c3 c0 01 00    	add    $0x1c0c3,%ebx
     f37:	89 75 f8             	mov    %esi,-0x8(%ebp)
     f3a:	8d 75 d4             	lea    -0x2c(%ebp),%esi
     f3d:	89 7d fc             	mov    %edi,-0x4(%ebp)
     f40:	89 45 d0             	mov    %eax,-0x30(%ebp)
     f43:	89 45 d4             	mov    %eax,-0x2c(%ebp)
     f46:	8d 45 ec             	lea    -0x14(%ebp),%eax
     f49:	89 55 d8             	mov    %edx,-0x28(%ebp)
     f4c:	8d 55 e8             	lea    -0x18(%ebp),%edx
     f4f:	c7 45 dc 01 00 00 00 	movl   $0x1,-0x24(%ebp)
     f56:	c7 45 e0 00 00 00 00 	movl   $0x0,-0x20(%ebp)
     f5d:	8b bb 30 00 00 00    	mov    0x30(%ebx),%edi
     f63:	89 74 24 04          	mov    %esi,0x4(%esp)
     f67:	8d b3 9c 40 fe ff    	lea    -0x1bf64(%ebx),%esi
     f6d:	c7 45 e8 00 00 00 00 	movl   $0x0,-0x18(%ebp)
     f74:	89 34 24             	mov    %esi,(%esp)
     f77:	e8 54 d0 00 00       	call   dfd0 <_dl_rtld_di_serinfo+0x6cf0>
     f7c:	8b 45 e8             	mov    -0x18(%ebp),%eax
     f7f:	83 ec 08             	sub    $0x8,%esp
     f82:	85 c0                	test   %eax,%eax
     f84:	75 18                	jne    f9e <free@plt+0x7c6>
     f86:	31 c0                	xor    %eax,%eax
     f88:	39 bb 30 00 00 00    	cmp    %edi,0x30(%ebx)
     f8e:	0f 95 c0             	setne  %al
     f91:	8b 5d f4             	mov    -0xc(%ebp),%ebx
     f94:	8b 75 f8             	mov    -0x8(%ebp),%esi
     f97:	8b 7d fc             	mov    -0x4(%ebp),%edi
     f9a:	89 ec                	mov    %ebp,%esp
     f9c:	5d                   	pop    %ebp
     f9d:	c3                   	ret    
     f9e:	8b 45 08             	mov    0x8(%ebp),%eax
     fa1:	c7 04 24 02 00 00 00 	movl   $0x2,(%esp)
     fa8:	89 44 24 0c          	mov    %eax,0xc(%esp)
     fac:	8b 45 d0             	mov    -0x30(%ebp),%eax
     faf:	89 44 24 08          	mov    %eax,0x8(%esp)
     fb3:	8d 83 f0 b0 ff ff    	lea    -0x4f10(%ebx),%eax
     fb9:	89 44 24 04          	mov    %eax,0x4(%esp)
     fbd:	e8 2e e3 00 00       	call   f2f0 <_dl_debug_state+0x5e0>
     fc2:	31 c0                	xor    %eax,%eax
     fc4:	eb cb                	jmp    f91 <free@plt+0x7b9>
     fc6:	8d 76 00             	lea    0x0(%esi),%esi
     fc9:	8d bc 27 00 00 00 00 	lea    0x0(%edi,%eiz,1),%edi
     fd0:	55                   	push   %ebp
     fd1:	89 e5                	mov    %esp,%ebp
     fd3:	53                   	push   %ebx
     fd4:	83 ec 10             	sub    $0x10,%esp
     fd7:	8b 55 0c             	mov    0xc(%ebp),%edx
     fda:	e8 4c 60 01 00       	call   1702b <calloc+0x1e7b>
     fdf:	81 c3 15 c0 01 00    	add    $0x1c015,%ebx
     fe5:	80 3a 00             	cmpb   $0x0,(%edx)
     fe8:	75 14                	jne    ffe <free@plt+0x826>
     fea:	8b 83 ac fc ff ff    	mov    -0x354(%ebx),%eax
     ff0:	8d 93 e5 cc ff ff    	lea    -0x331b(%ebx),%edx
     ff6:	8b 00                	mov    (%eax),%eax
     ff8:	85 c0                	test   %eax,%eax
     ffa:	74 02                	je     ffe <free@plt+0x826>
     ffc:	89 c2                	mov    %eax,%edx
     ffe:	8b 45 10             	mov    0x10(%ebp),%eax
    1001:	89 54 24 0c          	mov    %edx,0xc(%esp)
    1005:	c7 04 24 02 00 00 00 	movl   $0x2,(%esp)
    100c:	89 44 24 08          	mov    %eax,0x8(%esp)
    1010:	8d 83 f4 cc ff ff    	lea    -0x330c(%ebx),%eax
    1016:	89 44 24 04          	mov    %eax,0x4(%esp)
    101a:	e8 d1 e2 00 00       	call   f2f0 <_dl_debug_state+0x5e0>
    101f:	83 c4 10             	add    $0x10,%esp
    1022:	5b                   	pop    %ebx
    1023:	5d                   	pop    %ebp
    1024:	c3                   	ret    
    1025:	8d 74 26 00          	lea    0x0(%esi,%eiz,1),%esi
    1029:	8d bc 27 00 00 00 00 	lea    0x0(%edi,%eiz,1),%edi
    1030:	55                   	push   %ebp
    1031:	89 e5                	mov    %esp,%ebp
    1033:	53                   	push   %ebx
    1034:	e8 f2 5f 01 00       	call   1702b <calloc+0x1e7b>
    1039:	81 c3 bb bf 01 00    	add    $0x1bfbb,%ebx
    103f:	83 ec 14             	sub    $0x14,%esp
    1042:	8b 83 ac fc ff ff    	mov    -0x354(%ebx),%eax
    1048:	8d 93 fd cc ff ff    	lea    -0x3303(%ebx),%edx
    104e:	8b 00                	mov    (%eax),%eax
    1050:	85 c0                	test   %eax,%eax
    1052:	74 02                	je     1056 <free@plt+0x87e>
    1054:	89 c2                	mov    %eax,%edx
    1056:	8b 45 10             	mov    0x10(%ebp),%eax
    1059:	89 54 24 08          	mov    %edx,0x8(%esp)
    105d:	c7 04 24 02 00 00 00 	movl   $0x2,(%esp)
    1064:	89 44 24 10          	mov    %eax,0x10(%esp)
    1068:	8b 45 0c             	mov    0xc(%ebp),%eax
    106b:	89 44 24 0c          	mov    %eax,0xc(%esp)
    106f:	8d 83 14 cd ff ff    	lea    -0x32ec(%ebx),%eax
    1075:	89 44 24 04          	mov    %eax,0x4(%esp)
    1079:	e8 72 e2 00 00       	call   f2f0 <_dl_debug_state+0x5e0>
    107e:	83 c4 14             	add    $0x14,%esp
    1081:	5b                   	pop    %ebx
    1082:	5d                   	pop    %ebp
    1083:	c3                   	ret    
    1084:	8d b6 00 00 00 00    	lea    0x0(%esi),%esi
    108a:	8d bf 00 00 00 00    	lea    0x0(%edi),%edi
    1090:	55                   	push   %ebp
    1091:	89 e5                	mov    %esp,%ebp
    1093:	56                   	push   %esi
    1094:	83 ec 10             	sub    $0x10,%esp
    1097:	8b 75 08             	mov    0x8(%ebp),%esi
    109a:	8b 4e 08             	mov    0x8(%esi),%ecx
    109d:	8b 46 04             	mov    0x4(%esi),%eax
    10a0:	c7 44 24 0c 00 00 00 	movl   $0x0,0xc(%esp)
    10a7:	00 
    10a8:	8b 56 0c             	mov    0xc(%esi),%edx
    10ab:	c7 44 24 04 00 00 00 	movl   $0x0,0x4(%esp)
    10b2:	00 
    10b3:	c7 04 24 01 00 00 00 	movl   $0x1,(%esp)
    10ba:	89 54 24 08          	mov    %edx,0x8(%esp)
    10be:	8b 16                	mov    (%esi),%edx
    10c0:	e8 db 63 00 00       	call   74a0 <_dl_rtld_di_serinfo+0x1c0>
    10c5:	89 46 10             	mov    %eax,0x10(%esi)
    10c8:	83 ec 10             	sub    $0x10,%esp
    10cb:	8b 75 fc             	mov    -0x4(%ebp),%esi
    10ce:	c9                   	leave  
    10cf:	c3                   	ret    
    10d0:	55                   	push   %ebp
    10d1:	89 e5                	mov    %esp,%ebp
    10d3:	57                   	push   %edi
    10d4:	56                   	push   %esi
    10d5:	53                   	push   %ebx
    10d6:	e8 50 5f 01 00       	call   1702b <calloc+0x1e7b>
    10db:	81 c3 19 bf 01 00    	add    $0x1bf19,%ebx
    10e1:	83 ec 10             	sub    $0x10,%esp
    10e4:	89 45 f0             	mov    %eax,-0x10(%ebp)
    10e7:	8d 7d f0             	lea    -0x10(%ebp),%edi
    10ea:	8d 83 49 cf ff ff    	lea    -0x30b7(%ebx),%eax
    10f0:	89 45 ec             	mov    %eax,-0x14(%ebp)
    10f3:	90                   	nop    
    10f4:	8d 74 26 00          	lea    0x0(%esi,%eiz,1),%esi
    10f8:	8b 45 ec             	mov    -0x14(%ebp),%eax
    10fb:	89 3c 24             	mov    %edi,(%esp)
    10fe:	89 44 24 04          	mov    %eax,0x4(%esp)
    1102:	e8 c9 39 01 00       	call   14ad0 <_dl_make_stack_executable+0x3290>
    1107:	85 c0                	test   %eax,%eax
    1109:	89 c6                	mov    %eax,%esi
    110b:	74 3b                	je     1148 <free@plt+0x970>
    110d:	80 3e 00             	cmpb   $0x0,(%esi)
    1110:	74 e6                	je     10f8 <free@plt+0x920>
    1112:	8b 83 28 ff ff ff    	mov    -0xd8(%ebx),%eax
    1118:	85 c0                	test   %eax,%eax
    111a:	75 3f                	jne    115b <free@plt+0x983>
    111c:	c7 04 24 08 00 00 00 	movl   $0x8,(%esp)
    1123:	e8 70 f6 ff ff       	call   798 <malloc@plt>
    1128:	8b 8b d4 05 00 00    	mov    0x5d4(%ebx),%ecx
    112e:	85 c9                	test   %ecx,%ecx
    1130:	89 c2                	mov    %eax,%edx
    1132:	89 30                	mov    %esi,(%eax)
    1134:	74 1a                	je     1150 <free@plt+0x978>
    1136:	8b 41 04             	mov    0x4(%ecx),%eax
    1139:	89 42 04             	mov    %eax,0x4(%edx)
    113c:	89 51 04             	mov    %edx,0x4(%ecx)
    113f:	89 93 d4 05 00 00    	mov    %edx,0x5d4(%ebx)
    1145:	eb b1                	jmp    10f8 <free@plt+0x920>
    1147:	90                   	nop    
    1148:	83 c4 10             	add    $0x10,%esp
    114b:	5b                   	pop    %ebx
    114c:	5e                   	pop    %esi
    114d:	5f                   	pop    %edi
    114e:	5d                   	pop    %ebp
    114f:	c3                   	ret    
    1150:	89 42 04             	mov    %eax,0x4(%edx)
    1153:	89 83 d4 05 00 00    	mov    %eax,0x5d4(%ebx)
    1159:	eb 9d                	jmp    10f8 <free@plt+0x920>
    115b:	c7 44 24 04 2f 00 00 	movl   $0x2f,0x4(%esp)
    1162:	00 
    1163:	89 34 24             	mov    %esi,(%esp)
    1166:	e8 c5 56 01 00       	call   16830 <calloc+0x1680>
    116b:	85 c0                	test   %eax,%eax
    116d:	75 89                	jne    10f8 <free@plt+0x920>
    116f:	eb ab                	jmp    111c <free@plt+0x944>
    1171:	eb 0d                	jmp    1180 <free@plt+0x9a8>
    1173:	90                   	nop    
    1174:	90                   	nop    
    1175:	90                   	nop    
    1176:	90                   	nop    
    1177:	90                   	nop    
    1178:	90                   	nop    
    1179:	90                   	nop    
    117a:	90                   	nop    
    117b:	90                   	nop    
    117c:	90                   	nop    
    117d:	90                   	nop    
    117e:	90                   	nop    
    117f:	90                   	nop    
    1180:	55                   	push   %ebp
    1181:	89 e5                	mov    %esp,%ebp
    1183:	83 ec 10             	sub    $0x10,%esp
    1186:	8b 45 08             	mov    0x8(%ebp),%eax
    1189:	8b 10                	mov    (%eax),%edx
    118b:	c7 44 24 0c 00 00 00 	movl   $0x0,0xc(%esp)
    1192:	00 
    1193:	8b 40 04             	mov    0x4(%eax),%eax
    1196:	89 44 24 08          	mov    %eax,0x8(%esp)
    119a:	8b 82 cc 01 00 00    	mov    0x1cc(%edx),%eax
    11a0:	89 14 24             	mov    %edx,(%esp)
    11a3:	89 44 24 04          	mov    %eax,0x4(%esp)
    11a7:	e8 04 94 00 00       	call   a5b0 <_dl_rtld_di_serinfo+0x32d0>
    11ac:	c9                   	leave  
    11ad:	c3                   	ret    
    11ae:	66 90                	xchg   %ax,%ax
    11b0:	55                   	push   %ebp
    11b1:	89 e5                	mov    %esp,%ebp
    11b3:	57                   	push   %edi
    11b4:	56                   	push   %esi
    11b5:	53                   	push   %ebx
    11b6:	e8 70 5e 01 00       	call   1702b <calloc+0x1e7b>
    11bb:	81 c3 39 be 01 00    	add    $0x1be39,%ebx
    11c1:	83 ec 48             	sub    $0x48,%esp
    11c4:	89 45 c4             	mov    %eax,-0x3c(%ebp)
    11c7:	8b 4d c4             	mov    -0x3c(%ebp),%ecx
    11ca:	8d 83 8c a3 ff ff    	lea    -0x5c74(%ebx),%eax
    11d0:	8d 93 34 b1 ff ff    	lea    -0x4ecc(%ebx),%edx
    11d6:	89 45 d4             	mov    %eax,-0x2c(%ebp)
    11d9:	89 55 d0             	mov    %edx,-0x30(%ebp)
    11dc:	0f b6 01             	movzbl (%ecx),%eax
    11df:	84 c0                	test   %al,%al
    11e1:	0f 84 16 01 00 00    	je     12fd <free@plt+0xb25>
    11e7:	90                   	nop    
    11e8:	3c 20                	cmp    $0x20,%al
    11ea:	0f 84 f0 00 00 00    	je     12e0 <free@plt+0xb08>
    11f0:	3c 2c                	cmp    $0x2c,%al
    11f2:	0f 84 e8 00 00 00    	je     12e0 <free@plt+0xb08>
    11f8:	3c 3a                	cmp    $0x3a,%al
    11fa:	8d b6 00 00 00 00    	lea    0x0(%esi),%esi
    1200:	0f 84 da 00 00 00    	je     12e0 <free@plt+0xb08>
    1206:	8b 4d c4             	mov    -0x3c(%ebp),%ecx
    1209:	8b 75 c4             	mov    -0x3c(%ebp),%esi
    120c:	83 c1 01             	add    $0x1,%ecx
    120f:	89 4d f0             	mov    %ecx,-0x10(%ebp)
    1212:	0f b6 46 01          	movzbl 0x1(%esi),%eax
    1216:	84 c0                	test   %al,%al
    1218:	0f 85 f2 00 00 00    	jne    1310 <free@plt+0xb38>
    121e:	c7 45 c8 01 00 00 00 	movl   $0x1,-0x38(%ebp)
    1225:	8d 76 00             	lea    0x0(%esi),%esi
    1228:	c7 45 cc 00 00 00 00 	movl   $0x0,-0x34(%ebp)
    122f:	eb 11                	jmp    1242 <free@plt+0xa6a>
    1231:	8d b4 26 00 00 00 00 	lea    0x0(%esi,%eiz,1),%esi
    1238:	83 45 cc 01          	addl   $0x1,-0x34(%ebp)
    123c:	83 7d cc 0a          	cmpl   $0xa,-0x34(%ebp)
    1240:	74 4e                	je     1290 <free@plt+0xab8>
    1242:	6b 55 cc 36          	imul   $0x36,-0x34(%ebp),%edx
    1246:	0f b6 84 1a 8c a3 ff 	movzbl -0x5c74(%edx,%ebx,1),%eax
    124d:	ff 
    124e:	3b 45 c8             	cmp    -0x38(%ebp),%eax
    1251:	75 e5                	jne    1238 <free@plt+0xa60>
    1253:	8b 75 c8             	mov    -0x38(%ebp),%esi
    1256:	03 55 d4             	add    -0x2c(%ebp),%edx
    1259:	8b 4d c8             	mov    -0x38(%ebp),%ecx
    125c:	89 55 ec             	mov    %edx,-0x14(%ebp)
    125f:	83 c2 01             	add    $0x1,%edx
    1262:	39 f6                	cmp    %esi,%esi
    1264:	8b 75 c4             	mov    -0x3c(%ebp),%esi
    1267:	89 d7                	mov    %edx,%edi
    1269:	89 55 e8             	mov    %edx,-0x18(%ebp)
    126c:	f3 a6                	repz cmpsb %es:(%edi),%ds:(%esi)
    126e:	75 c8                	jne    1238 <free@plt+0xa60>
    1270:	8b 55 ec             	mov    -0x14(%ebp),%edx
    1273:	c7 83 f8 fe ff ff 01 	movl   $0x1,-0x108(%ebx)
    127a:	00 00 00 
    127d:	0f b7 42 34          	movzwl 0x34(%edx),%eax
    1281:	09 83 cc fc ff ff    	or     %eax,-0x334(%ebx)
    1287:	83 7d cc 0a          	cmpl   $0xa,-0x34(%ebp)
    128b:	75 5c                	jne    12e9 <free@plt+0xb11>
    128d:	8d 76 00             	lea    0x0(%esi),%esi
    1290:	8b 4d c8             	mov    -0x38(%ebp),%ecx
    1293:	89 4c 24 04          	mov    %ecx,0x4(%esp)
    1297:	8b 75 c4             	mov    -0x3c(%ebp),%esi
    129a:	89 34 24             	mov    %esi,(%esp)
    129d:	e8 2e 58 01 00       	call   16ad0 <calloc+0x1920>
    12a2:	8d 50 13             	lea    0x13(%eax),%edx
    12a5:	83 e2 fc             	and    $0xfffffffc,%edx
    12a8:	29 d4                	sub    %edx,%esp
    12aa:	8d 54 24 27          	lea    0x27(%esp),%edx
    12ae:	83 e2 f0             	and    $0xfffffff0,%edx
    12b1:	c6 04 02 00          	movb   $0x0,(%edx,%eax,1)
    12b5:	89 44 24 08          	mov    %eax,0x8(%esp)
    12b9:	89 74 24 04          	mov    %esi,0x4(%esp)
    12bd:	89 14 24             	mov    %edx,(%esp)
    12c0:	e8 0b 5c 01 00       	call   16ed0 <calloc+0x1d20>
    12c5:	89 44 24 08          	mov    %eax,0x8(%esp)
    12c9:	8b 7d d0             	mov    -0x30(%ebp),%edi
    12cc:	c7 04 24 02 00 00 00 	movl   $0x2,(%esp)
    12d3:	89 7c 24 04          	mov    %edi,0x4(%esp)
    12d7:	e8 14 e0 00 00       	call   f2f0 <_dl_debug_state+0x5e0>
    12dc:	eb 0b                	jmp    12e9 <free@plt+0xb11>
    12de:	66 90                	xchg   %ax,%ax
    12e0:	8b 45 c4             	mov    -0x3c(%ebp),%eax
    12e3:	83 c0 01             	add    $0x1,%eax
    12e6:	89 45 f0             	mov    %eax,-0x10(%ebp)
    12e9:	8b 55 f0             	mov    -0x10(%ebp),%edx
    12ec:	89 55 c4             	mov    %edx,-0x3c(%ebp)
    12ef:	8b 4d c4             	mov    -0x3c(%ebp),%ecx
    12f2:	0f b6 01             	movzbl (%ecx),%eax
    12f5:	84 c0                	test   %al,%al
    12f7:	0f 85 eb fe ff ff    	jne    11e8 <free@plt+0xa10>
    12fd:	f6 83 cd fc ff ff 02 	testb  $0x2,-0x333(%ebx)
    1304:	75 71                	jne    1377 <free@plt+0xb9f>
    1306:	8d 65 f4             	lea    -0xc(%ebp),%esp
    1309:	5b                   	pop    %ebx
    130a:	5e                   	pop    %esi
    130b:	5f                   	pop    %edi
    130c:	5d                   	pop    %ebp
    130d:	c3                   	ret    
    130e:	66 90                	xchg   %ax,%ax
    1310:	3c 20                	cmp    $0x20,%al
    1312:	0f 84 06 ff ff ff    	je     121e <free@plt+0xa46>
    1318:	3c 2c                	cmp    $0x2c,%al
    131a:	8d b6 00 00 00 00    	lea    0x0(%esi),%esi
    1320:	0f 84 f8 fe ff ff    	je     121e <free@plt+0xa46>
    1326:	3c 3a                	cmp    $0x3a,%al
    1328:	0f 84 f0 fe ff ff    	je     121e <free@plt+0xa46>
    132e:	c7 45 c8 01 00 00 00 	movl   $0x1,-0x38(%ebp)
    1335:	8d 76 00             	lea    0x0(%esi),%esi
    1338:	eb 1c                	jmp    1356 <free@plt+0xb7e>
    133a:	3c 20                	cmp    $0x20,%al
    133c:	8d 74 26 00          	lea    0x0(%esi,%eiz,1),%esi
    1340:	0f 84 e2 fe ff ff    	je     1228 <free@plt+0xa50>
    1346:	3c 2c                	cmp    $0x2c,%al
    1348:	0f 84 da fe ff ff    	je     1228 <free@plt+0xa50>
    134e:	3c 3a                	cmp    $0x3a,%al
    1350:	0f 84 d2 fe ff ff    	je     1228 <free@plt+0xa50>
    1356:	83 45 c8 01          	addl   $0x1,-0x38(%ebp)
    135a:	8b 7d c4             	mov    -0x3c(%ebp),%edi
    135d:	8b 4d c4             	mov    -0x3c(%ebp),%ecx
    1360:	8b 55 c8             	mov    -0x38(%ebp),%edx
    1363:	03 7d c8             	add    -0x38(%ebp),%edi
    1366:	89 7d f0             	mov    %edi,-0x10(%ebp)
    1369:	0f b6 04 11          	movzbl (%ecx,%edx,1),%eax
    136d:	84 c0                	test   %al,%al
    136f:	0f 84 b3 fe ff ff    	je     1228 <free@plt+0xa50>
    1375:	eb c3                	jmp    133a <free@plt+0xb62>
    1377:	8d 83 6c b1 ff ff    	lea    -0x4e94(%ebx),%eax
    137d:	89 44 24 04          	mov    %eax,0x4(%esp)
    1381:	8d b3 8c a3 ff ff    	lea    -0x5c74(%ebx),%esi
    1387:	c7 04 24 01 00 00 00 	movl   $0x1,(%esp)
    138e:	89 f7                	mov    %esi,%edi
    1390:	e8 5b df 00 00       	call   f2f0 <_dl_debug_state+0x5e0>
    1395:	8d 83 20 cd ff ff    	lea    -0x32e0(%ebx),%eax
    139b:	8d 93 2a cd ff ff    	lea    -0x32d6(%ebx),%edx
    13a1:	89 75 d8             	mov    %esi,-0x28(%ebp)
    13a4:	31 f6                	xor    %esi,%esi
    13a6:	89 45 e0             	mov    %eax,-0x20(%ebp)
    13a9:	89 55 dc             	mov    %edx,-0x24(%ebp)
    13ac:	8d 74 26 00          	lea    0x0(%esi,%eiz,1),%esi
    13b0:	6b d6 36             	imul   $0x36,%esi,%edx
    13b3:	0f b6 0f             	movzbl (%edi),%ecx
    13b6:	83 c6 01             	add    $0x1,%esi
    13b9:	03 55 d8             	add    -0x28(%ebp),%edx
    13bc:	83 c7 36             	add    $0x36,%edi
    13bf:	8d 42 0b             	lea    0xb(%edx),%eax
    13c2:	0f b6 c9             	movzbl %cl,%ecx
    13c5:	89 44 24 14          	mov    %eax,0x14(%esp)
    13c9:	8b 45 e0             	mov    -0x20(%ebp),%eax
    13cc:	83 c2 01             	add    $0x1,%edx
    13cf:	89 54 24 0c          	mov    %edx,0xc(%esp)
    13d3:	89 4c 24 08          	mov    %ecx,0x8(%esp)
    13d7:	8d 44 08 fd          	lea    -0x3(%eax,%ecx,1),%eax
    13db:	89 44 24 10          	mov    %eax,0x10(%esp)
    13df:	8b 55 dc             	mov    -0x24(%ebp),%edx
    13e2:	c7 04 24 01 00 00 00 	movl   $0x1,(%esp)
    13e9:	89 54 24 04          	mov    %edx,0x4(%esp)
    13ed:	e8 fe de 00 00       	call   f2f0 <_dl_debug_state+0x5e0>
    13f2:	83 fe 0a             	cmp    $0xa,%esi
    13f5:	75 b9                	jne    13b0 <free@plt+0xbd8>
    13f7:	8d 83 a8 b1 ff ff    	lea    -0x4e58(%ebx),%eax
    13fd:	89 44 24 04          	mov    %eax,0x4(%esp)
    1401:	c7 04 24 01 00 00 00 	movl   $0x1,(%esp)
    1408:	e8 e3 de 00 00       	call   f2f0 <_dl_debug_state+0x5e0>
    140d:	c7 04 24 00 00 00 00 	movl   $0x0,(%esp)
    1414:	e8 2b 52 01 00       	call   16644 <calloc+0x1494>
    1419:	8d 65 f4             	lea    -0xc(%ebp),%esp
    141c:	5b                   	pop    %ebx
    141d:	5e                   	pop    %esi
    141e:	5f                   	pop    %edi
    141f:	5d                   	pop    %ebp
    1420:	c3                   	ret    
    1421:	eb 0d                	jmp    1430 <free@plt+0xc58>
    1423:	90                   	nop    
    1424:	90                   	nop    
    1425:	90                   	nop    
    1426:	90                   	nop    
    1427:	90                   	nop    
    1428:	90                   	nop    
    1429:	90                   	nop    
    142a:	90                   	nop    
    142b:	90                   	nop    
    142c:	90                   	nop    
    142d:	90                   	nop    
    142e:	90                   	nop    
    142f:	90                   	nop    
    1430:	55                   	push   %ebp
    1431:	89 e5                	mov    %esp,%ebp
    1433:	57                   	push   %edi
    1434:	56                   	push   %esi
    1435:	53                   	push   %ebx
    1436:	e8 f0 5b 01 00       	call   1702b <calloc+0x1e7b>
    143b:	81 c3 b9 bb 01 00    	add    $0x1bbb9,%ebx
    1441:	83 ec 54             	sub    $0x54,%esp
    1444:	89 45 d0             	mov    %eax,-0x30(%ebp)
    1447:	8b 8b 28 ff ff ff    	mov    -0xd8(%ebx),%ecx
    144d:	8d 83 75 a1 ff ff    	lea    -0x5e8b(%ebx),%eax
    1453:	8b 93 5c 06 00 00    	mov    0x65c(%ebx),%edx
    1459:	85 c9                	test   %ecx,%ecx
    145b:	75 06                	jne    1463 <free@plt+0xc8b>
    145d:	8d 83 6c a1 ff ff    	lea    -0x5e94(%ebx),%eax
    1463:	89 83 3c fe ff ff    	mov    %eax,-0x1c4(%ebx)
    1469:	8d 45 f0             	lea    -0x10(%ebp),%eax
    146c:	89 55 f0             	mov    %edx,-0x10(%ebp)
    146f:	8d 8b ee cd ff ff    	lea    -0x3212(%ebx),%ecx
    1475:	89 45 c8             	mov    %eax,-0x38(%ebp)
    1478:	8d 93 03 ce ff ff    	lea    -0x31fd(%ebx),%edx
    147e:	8d b3 dd cd ff ff    	lea    -0x3223(%ebx),%esi
    1484:	8d 83 ce cd ff ff    	lea    -0x3232(%ebx),%eax
    148a:	c7 45 dc 00 00 00 00 	movl   $0x0,-0x24(%ebp)
    1491:	c7 45 e0 00 00 00 00 	movl   $0x0,-0x20(%ebp)
    1498:	89 55 c4             	mov    %edx,-0x3c(%ebp)
    149b:	89 4d c0             	mov    %ecx,-0x40(%ebp)
    149e:	89 75 bc             	mov    %esi,-0x44(%ebp)
    14a1:	89 45 b8             	mov    %eax,-0x48(%ebp)
    14a4:	8d 74 26 00          	lea    0x0(%esi,%eiz,1),%esi
    14a8:	8b 45 c8             	mov    -0x38(%ebp),%eax
    14ab:	e8 a0 34 01 00       	call   14950 <_dl_make_stack_executable+0x3110>
    14b0:	85 c0                	test   %eax,%eax
    14b2:	89 45 b4             	mov    %eax,-0x4c(%ebp)
    14b5:	74 53                	je     150a <free@plt+0xd32>
    14b7:	0f b6 00             	movzbl (%eax),%eax
    14ba:	84 c0                	test   %al,%al
    14bc:	74 3a                	je     14f8 <free@plt+0xd20>
    14be:	31 d2                	xor    %edx,%edx
    14c0:	3c 3d                	cmp    $0x3d,%al
    14c2:	74 34                	je     14f8 <free@plt+0xd20>
    14c4:	8d 74 26 00          	lea    0x0(%esi,%eiz,1),%esi
    14c8:	8b 4d b4             	mov    -0x4c(%ebp),%ecx
    14cb:	83 c2 01             	add    $0x1,%edx
    14ce:	0f b6 04 11          	movzbl (%ecx,%edx,1),%eax
    14d2:	84 c0                	test   %al,%al
    14d4:	75 2a                	jne    1500 <free@plt+0xd28>
    14d6:	3c 3d                	cmp    $0x3d,%al
    14d8:	75 ce                	jne    14a8 <free@plt+0xcd0>
    14da:	8d b6 00 00 00 00    	lea    0x0(%esi),%esi
    14e0:	8d 42 fc             	lea    -0x4(%edx),%eax
    14e3:	83 f8 10             	cmp    $0x10,%eax
    14e6:	77 c0                	ja     14a8 <free@plt+0xcd0>
    14e8:	8b 84 83 84 a1 ff ff 	mov    -0x5e7c(%ebx,%eax,4),%eax
    14ef:	01 d8                	add    %ebx,%eax
    14f1:	ff e0                	jmp    *%eax
    14f3:	90                   	nop    
    14f4:	8d 74 26 00          	lea    0x0(%esi,%eiz,1),%esi
    14f8:	31 d2                	xor    %edx,%edx
    14fa:	eb da                	jmp    14d6 <free@plt+0xcfe>
    14fc:	8d 74 26 00          	lea    0x0(%esi,%eiz,1),%esi
    1500:	3c 3d                	cmp    $0x3d,%al
    1502:	75 c4                	jne    14c8 <free@plt+0xcf0>
    1504:	8d 74 26 00          	lea    0x0(%esi,%eiz,1),%esi
    1508:	eb d6                	jmp    14e0 <free@plt+0xd08>
    150a:	8b bb 28 ff ff ff    	mov    -0xd8(%ebx),%edi
    1510:	8b 75 dc             	mov    -0x24(%ebp),%esi
    1513:	8b 4d d0             	mov    -0x30(%ebp),%ecx
    1516:	85 ff                	test   %edi,%edi
    1518:	89 31                	mov    %esi,(%ecx)
    151a:	0f 85 5b 05 00 00    	jne    1a7b <free@plt+0x12a3>
    1520:	8b 8b f8 fe ff ff    	mov    -0x108(%ebx),%ecx
    1526:	85 c9                	test   %ecx,%ecx
    1528:	0f 84 ab 00 00 00    	je     15d9 <free@plt+0xe01>
    152e:	8b 55 e0             	mov    -0x20(%ebp),%edx
    1531:	85 d2                	test   %edx,%edx
    1533:	0f 84 a0 00 00 00    	je     15d9 <free@plt+0xe01>
    1539:	8b 45 e0             	mov    -0x20(%ebp),%eax
    153c:	89 65 d8             	mov    %esp,-0x28(%ebp)
    153f:	89 04 24             	mov    %eax,(%esp)
    1542:	e8 d9 54 01 00       	call   16a20 <calloc+0x1870>
    1547:	89 c7                	mov    %eax,%edi
    1549:	8d 40 1e             	lea    0x1e(%eax),%eax
    154c:	83 e0 fc             	and    $0xfffffffc,%eax
    154f:	29 c4                	sub    %eax,%esp
    1551:	8d 74 24 23          	lea    0x23(%esp),%esi
    1555:	8d 57 0b             	lea    0xb(%edi),%edx
    1558:	83 e6 f0             	and    $0xfffffff0,%esi
    155b:	89 55 d4             	mov    %edx,-0x2c(%ebp)
    155e:	c6 44 37 0b 00       	movb   $0x0,0xb(%edi,%esi,1)
    1563:	e8 f8 50 01 00       	call   16660 <calloc+0x14b0>
    1568:	c7 44 24 10 00 00 00 	movl   $0x0,0x10(%esp)
    156f:	00 
    1570:	c7 44 24 0c 0a 00 00 	movl   $0xa,0xc(%esp)
    1577:	00 
    1578:	03 75 d4             	add    -0x2c(%ebp),%esi
    157b:	89 c1                	mov    %eax,%ecx
    157d:	c1 f9 1f             	sar    $0x1f,%ecx
    1580:	89 4c 24 04          	mov    %ecx,0x4(%esp)
    1584:	89 74 24 08          	mov    %esi,0x8(%esp)
    1588:	89 04 24             	mov    %eax,(%esp)
    158b:	e8 00 36 01 00       	call   14b90 <_dl_make_stack_executable+0x3350>
    1590:	89 fa                	mov    %edi,%edx
    1592:	f7 da                	neg    %edx
    1594:	c6 40 ff 2e          	movb   $0x2e,-0x1(%eax)
    1598:	8d 44 10 ff          	lea    -0x1(%eax,%edx,1),%eax
    159c:	89 7c 24 08          	mov    %edi,0x8(%esp)
    15a0:	8b 75 e0             	mov    -0x20(%ebp),%esi
    15a3:	89 04 24             	mov    %eax,(%esp)
    15a6:	89 74 24 04          	mov    %esi,0x4(%esp)
    15aa:	e8 21 59 01 00       	call   16ed0 <calloc+0x1d20>
    15af:	c7 44 24 08 b6 01 00 	movl   $0x1b6,0x8(%esp)
    15b6:	00 
    15b7:	c7 44 24 04 41 04 02 	movl   $0x20441,0x4(%esp)
    15be:	00 
    15bf:	89 04 24             	mov    %eax,(%esp)
    15c2:	e8 f9 4c 01 00       	call   162c0 <calloc+0x1110>
    15c7:	89 83 f0 fc ff ff    	mov    %eax,-0x310(%ebx)
    15cd:	83 c0 01             	add    $0x1,%eax
    15d0:	0f 84 c9 03 00 00    	je     199f <free@plt+0x11c7>
    15d6:	8b 65 d8             	mov    -0x28(%ebp),%esp
    15d9:	8d 65 f4             	lea    -0xc(%ebp),%esp
    15dc:	5b                   	pop    %ebx
    15dd:	5e                   	pop    %esi
    15de:	5f                   	pop    %edi
    15df:	5d                   	pop    %ebp
    15e0:	c3                   	ret    
    15e1:	8b 75 b4             	mov    -0x4c(%ebp),%esi
    15e4:	b9 14 00 00 00       	mov    $0x14,%ecx
    15e9:	8b 7d c0             	mov    -0x40(%ebp),%edi
    15ec:	f3 a6                	repz cmpsb %es:(%edi),%ds:(%esi)
    15ee:	0f 85 b4 fe ff ff    	jne    14a8 <free@plt+0xcd0>
    15f4:	c7 45 dc 03 00 00 00 	movl   $0x3,-0x24(%ebp)
    15fb:	e9 a8 fe ff ff       	jmp    14a8 <free@plt+0xcd0>
    1600:	8b 75 b4             	mov    -0x4c(%ebp),%esi
    1603:	b9 10 00 00 00       	mov    $0x10,%ecx
    1608:	8b 7d bc             	mov    -0x44(%ebp),%edi
    160b:	f3 a6                	repz cmpsb %es:(%edi),%ds:(%esi)
    160d:	0f 85 95 fe ff ff    	jne    14a8 <free@plt+0xcd0>
    1613:	8b 45 b4             	mov    -0x4c(%ebp),%eax
    1616:	c7 83 ec fc ff ff 01 	movl   $0x1,-0x314(%ebx)
    161d:	00 00 00 
    1620:	81 8b cc fc ff ff 00 	orl    $0x400,-0x334(%ebx)
    1627:	04 00 00 
    162a:	83 c0 11             	add    $0x11,%eax
    162d:	89 83 40 fe ff ff    	mov    %eax,-0x1c0(%ebx)
    1633:	c7 45 dc 03 00 00 00 	movl   $0x3,-0x24(%ebp)
    163a:	e9 69 fe ff ff       	jmp    14a8 <free@plt+0xcd0>
    163f:	8b 75 b4             	mov    -0x4c(%ebp),%esi
    1642:	b9 0f 00 00 00       	mov    $0xf,%ecx
    1647:	8b 7d c4             	mov    -0x3c(%ebp),%edi
    164a:	f3 a6                	repz cmpsb %es:(%edi),%ds:(%esi)
    164c:	0f 85 56 fe ff ff    	jne    14a8 <free@plt+0xcd0>
    1652:	8b 45 b4             	mov    -0x4c(%ebp),%eax
    1655:	80 78 10 35          	cmpb   $0x35,0x10(%eax)
    1659:	0f 95 c0             	setne  %al
    165c:	0f b6 c0             	movzbl %al,%eax
    165f:	83 c0 02             	add    $0x2,%eax
    1662:	89 83 04 fd ff ff    	mov    %eax,-0x2fc(%ebx)
    1668:	e9 3b fe ff ff       	jmp    14a8 <free@plt+0xcd0>
    166d:	8b 83 28 ff ff ff    	mov    -0xd8(%ebx),%eax
    1673:	85 c0                	test   %eax,%eax
    1675:	0f 85 2d fe ff ff    	jne    14a8 <free@plt+0xcd0>
    167b:	8b 75 b4             	mov    -0x4c(%ebp),%esi
    167e:	b9 0e 00 00 00       	mov    $0xe,%ecx
    1683:	8b 7d b8             	mov    -0x48(%ebp),%edi
    1686:	f3 a6                	repz cmpsb %es:(%edi),%ds:(%esi)
    1688:	0f 85 1a fe ff ff    	jne    14a8 <free@plt+0xcd0>
    168e:	8b 45 b4             	mov    -0x4c(%ebp),%eax
    1691:	80 78 0f 00          	cmpb   $0x0,0xf(%eax)
    1695:	0f 84 0d fe ff ff    	je     14a8 <free@plt+0xcd0>
    169b:	83 c0 0f             	add    $0xf,%eax
    169e:	89 83 3c fe ff ff    	mov    %eax,-0x1c4(%ebx)
    16a4:	e9 ff fd ff ff       	jmp    14a8 <free@plt+0xcd0>
    16a9:	8b 75 b4             	mov    -0x4c(%ebp),%esi
    16ac:	b9 0d 00 00 00       	mov    $0xd,%ecx
    16b1:	8d bb a4 cd ff ff    	lea    -0x325c(%ebx),%edi
    16b7:	f3 a6                	repz cmpsb %es:(%edi),%ds:(%esi)
    16b9:	0f 85 19 02 00 00    	jne    18d8 <free@plt+0x1100>
    16bf:	8b 7d b4             	mov    -0x4c(%ebp),%edi
    16c2:	8d 45 ec             	lea    -0x14(%ebp),%eax
    16c5:	31 f6                	xor    %esi,%esi
    16c7:	c7 45 e4 00 00 00 00 	movl   $0x0,-0x1c(%ebp)
    16ce:	89 45 cc             	mov    %eax,-0x34(%ebp)
    16d1:	83 c7 0e             	add    $0xe,%edi
    16d4:	c7 44 24 0c 00 00 00 	movl   $0x0,0xc(%esp)
    16db:	00 
    16dc:	c7 44 24 08 00 00 00 	movl   $0x0,0x8(%esp)
    16e3:	00 
    16e4:	8b 55 cc             	mov    -0x34(%ebp),%edx
    16e7:	89 3c 24             	mov    %edi,(%esp)
    16ea:	89 54 24 04          	mov    %edx,0x4(%esp)
    16ee:	e8 5d 35 01 00       	call   14c50 <_dl_make_stack_executable+0x3410>
    16f3:	3d fe 00 00 00       	cmp    $0xfe,%eax
    16f8:	0f 87 aa fd ff ff    	ja     14a8 <free@plt+0xcd0>
    16fe:	8b 4d ec             	mov    -0x14(%ebp),%ecx
    1701:	39 cf                	cmp    %ecx,%edi
    1703:	89 4d e8             	mov    %ecx,-0x18(%ebp)
    1706:	0f 84 9c fd ff ff    	je     14a8 <free@plt+0xcd0>
    170c:	83 7d e4 02          	cmpl   $0x2,-0x1c(%ebp)
    1710:	0f 85 98 02 00 00    	jne    19ae <free@plt+0x11d6>
    1716:	09 c6                	or     %eax,%esi
    1718:	85 f6                	test   %esi,%esi
    171a:	0f 84 88 fd ff ff    	je     14a8 <free@plt+0xcd0>
    1720:	89 b3 d0 fc ff ff    	mov    %esi,-0x330(%ebx)
    1726:	e9 7d fd ff ff       	jmp    14a8 <free@plt+0xcd0>
    172b:	8b 75 b4             	mov    -0x4c(%ebp),%esi
    172e:	b9 0c 00 00 00       	mov    $0xc,%ecx
    1733:	8d bb 09 d3 ff ff    	lea    -0x2cf7(%ebx),%edi
    1739:	f3 a6                	repz cmpsb %es:(%edi),%ds:(%esi)
    173b:	0f 85 e5 01 00 00    	jne    1926 <free@plt+0x114e>
    1741:	8b 45 b4             	mov    -0x4c(%ebp),%eax
    1744:	83 c0 0d             	add    $0xd,%eax
    1747:	89 83 ec fe ff ff    	mov    %eax,-0x114(%ebx)
    174d:	e9 56 fd ff ff       	jmp    14a8 <free@plt+0xcd0>
    1752:	8b 83 28 ff ff ff    	mov    -0xd8(%ebx),%eax
    1758:	85 c0                	test   %eax,%eax
    175a:	0f 85 48 fd ff ff    	jne    14a8 <free@plt+0xcd0>
    1760:	8b 75 b4             	mov    -0x4c(%ebp),%esi
    1763:	b9 0b 00 00 00       	mov    $0xb,%ecx
    1768:	8d bb 7e cd ff ff    	lea    -0x3282(%ebx),%edi
    176e:	f3 a6                	repz cmpsb %es:(%edi),%ds:(%esi)
    1770:	0f 85 32 fd ff ff    	jne    14a8 <free@plt+0xcd0>
    1776:	8b 45 b4             	mov    -0x4c(%ebp),%eax
    1779:	83 c0 0c             	add    $0xc,%eax
    177c:	89 83 30 fe ff ff    	mov    %eax,-0x1d0(%ebx)
    1782:	e9 21 fd ff ff       	jmp    14a8 <free@plt+0xcd0>
    1787:	8b 75 b4             	mov    -0x4c(%ebp),%esi
    178a:	b9 0a 00 00 00       	mov    $0xa,%ecx
    178f:	8d bb 73 cd ff ff    	lea    -0x328d(%ebx),%edi
    1795:	f3 a6                	repz cmpsb %es:(%edi),%ds:(%esi)
    1797:	0f 85 0b fd ff ff    	jne    14a8 <free@plt+0xcd0>
    179d:	c7 44 24 0c 00 00 00 	movl   $0x0,0xc(%esp)
    17a4:	00 
    17a5:	c7 44 24 08 00 00 00 	movl   $0x0,0x8(%esp)
    17ac:	00 
    17ad:	c7 44 24 04 00 00 00 	movl   $0x0,0x4(%esp)
    17b4:	00 
    17b5:	8b 45 b4             	mov    -0x4c(%ebp),%eax
    17b8:	83 c0 0b             	add    $0xb,%eax
    17bb:	89 04 24             	mov    %eax,(%esp)
    17be:	e8 8d 34 01 00       	call   14c50 <_dl_make_stack_executable+0x3410>
    17c3:	c7 83 14 fd ff ff 00 	movl   $0x0,-0x2ec(%ebx)
    17ca:	00 00 00 
    17cd:	89 83 10 fd ff ff    	mov    %eax,-0x2f0(%ebx)
    17d3:	e9 d0 fc ff ff       	jmp    14a8 <free@plt+0xcd0>
    17d8:	8b 83 28 ff ff ff    	mov    -0xd8(%ebx),%eax
    17de:	85 c0                	test   %eax,%eax
    17e0:	0f 85 c2 fc ff ff    	jne    14a8 <free@plt+0xcd0>
    17e6:	8b 75 b4             	mov    -0x4c(%ebp),%esi
    17e9:	b9 09 00 00 00       	mov    $0x9,%ecx
    17ee:	8d bb 69 cd ff ff    	lea    -0x3297(%ebx),%edi
    17f4:	f3 a6                	repz cmpsb %es:(%edi),%ds:(%esi)
    17f6:	0f 85 ac fc ff ff    	jne    14a8 <free@plt+0xcd0>
    17fc:	e8 4f 2c 01 00       	call   14450 <_dl_make_stack_executable+0x2c10>
    1801:	e9 a2 fc ff ff       	jmp    14a8 <free@plt+0xcd0>
    1806:	8b 75 b4             	mov    -0x4c(%ebp),%esi
    1809:	b9 08 00 00 00       	mov    $0x8,%ecx
    180e:	8d bb 57 cd ff ff    	lea    -0x32a9(%ebx),%edi
    1814:	f3 a6                	repz cmpsb %es:(%edi),%ds:(%esi)
    1816:	0f 85 55 01 00 00    	jne    1971 <free@plt+0x1199>
    181c:	8b 45 b4             	mov    -0x4c(%ebp),%eax
    181f:	80 78 09 00          	cmpb   $0x0,0x9(%eax)
    1823:	0f 94 c0             	sete   %al
    1826:	0f b6 c0             	movzbl %al,%eax
    1829:	89 83 f4 fc ff ff    	mov    %eax,-0x30c(%ebx)
    182f:	e9 74 fc ff ff       	jmp    14a8 <free@plt+0xcd0>
    1834:	8b 75 b4             	mov    -0x4c(%ebp),%esi
    1837:	b9 07 00 00 00       	mov    $0x7,%ecx
    183c:	8d bb 47 cd ff ff    	lea    -0x32b9(%ebx),%edi
    1842:	f3 a6                	repz cmpsb %es:(%edi),%ds:(%esi)
    1844:	0f 85 00 01 00 00    	jne    194a <free@plt+0x1172>
    184a:	8b 45 b4             	mov    -0x4c(%ebp),%eax
    184d:	80 78 08 00          	cmpb   $0x0,0x8(%eax)
    1851:	0f 95 c0             	setne  %al
    1854:	0f b6 c0             	movzbl %al,%eax
    1857:	89 83 f4 fe ff ff    	mov    %eax,-0x10c(%ebx)
    185d:	e9 46 fc ff ff       	jmp    14a8 <free@plt+0xcd0>
    1862:	8b 75 b4             	mov    -0x4c(%ebp),%esi
    1865:	b9 05 00 00 00       	mov    $0x5,%ecx
    186a:	8d bb 3b cd ff ff    	lea    -0x32c5(%ebx),%edi
    1870:	f3 a6                	repz cmpsb %es:(%edi),%ds:(%esi)
    1872:	75 3e                	jne    18b2 <free@plt+0x10da>
    1874:	8b 45 b4             	mov    -0x4c(%ebp),%eax
    1877:	83 c0 06             	add    $0x6,%eax
    187a:	e8 31 f9 ff ff       	call   11b0 <free@plt+0x9d8>
    187f:	e9 24 fc ff ff       	jmp    14a8 <free@plt+0xcd0>
    1884:	8b 75 b4             	mov    -0x4c(%ebp),%esi
    1887:	b9 04 00 00 00       	mov    $0x4,%ecx
    188c:	8d bb 36 cd ff ff    	lea    -0x32ca(%ebx),%edi
    1892:	f3 a6                	repz cmpsb %es:(%edi),%ds:(%esi)
    1894:	0f 85 0e fc ff ff    	jne    14a8 <free@plt+0xcd0>
    189a:	8b 45 b4             	mov    -0x4c(%ebp),%eax
    189d:	80 78 05 00          	cmpb   $0x0,0x5(%eax)
    18a1:	0f 95 c0             	setne  %al
    18a4:	0f b6 c0             	movzbl %al,%eax
    18a7:	89 83 ec fc ff ff    	mov    %eax,-0x314(%ebx)
    18ad:	e9 f6 fb ff ff       	jmp    14a8 <free@plt+0xcd0>
    18b2:	8b 75 b4             	mov    -0x4c(%ebp),%esi
    18b5:	b9 05 00 00 00       	mov    $0x5,%ecx
    18ba:	8d bb 41 cd ff ff    	lea    -0x32bf(%ebx),%edi
    18c0:	f3 a6                	repz cmpsb %es:(%edi),%ds:(%esi)
    18c2:	0f 85 e0 fb ff ff    	jne    14a8 <free@plt+0xcd0>
    18c8:	8b 45 b4             	mov    -0x4c(%ebp),%eax
    18cb:	83 c0 06             	add    $0x6,%eax
    18ce:	e8 fd f7 ff ff       	call   10d0 <free@plt+0x8f8>
    18d3:	e9 d0 fb ff ff       	jmp    14a8 <free@plt+0xcd0>
    18d8:	8b 83 28 ff ff ff    	mov    -0xd8(%ebx),%eax
    18de:	85 c0                	test   %eax,%eax
    18e0:	75 16                	jne    18f8 <free@plt+0x1120>
    18e2:	8b 75 b4             	mov    -0x4c(%ebp),%esi
    18e5:	b9 0d 00 00 00       	mov    $0xd,%ecx
    18ea:	8d bb b2 cd ff ff    	lea    -0x324e(%ebx),%edi
    18f0:	f3 a6                	repz cmpsb %es:(%edi),%ds:(%esi)
    18f2:	0f 84 02 01 00 00    	je     19fa <free@plt+0x1222>
    18f8:	8b 75 b4             	mov    -0x4c(%ebp),%esi
    18fb:	b9 0d 00 00 00       	mov    $0xd,%ecx
    1900:	8d bb c0 cd ff ff    	lea    -0x3240(%ebx),%edi
    1906:	f3 a6                	repz cmpsb %es:(%edi),%ds:(%esi)
    1908:	0f 85 9a fb ff ff    	jne    14a8 <free@plt+0xcd0>
    190e:	8b 45 b4             	mov    -0x4c(%ebp),%eax
    1911:	80 78 0e 30          	cmpb   $0x30,0xe(%eax)
    1915:	0f 95 c0             	setne  %al
    1918:	0f b6 c0             	movzbl %al,%eax
    191b:	89 83 90 fe ff ff    	mov    %eax,-0x170(%ebx)
    1921:	e9 82 fb ff ff       	jmp    14a8 <free@plt+0xcd0>
    1926:	8b 75 b4             	mov    -0x4c(%ebp),%esi
    1929:	b9 0c 00 00 00       	mov    $0xc,%ecx
    192e:	8d bb 8a cd ff ff    	lea    -0x3276(%ebx),%edi
    1934:	f3 a6                	repz cmpsb %es:(%edi),%ds:(%esi)
    1936:	0f 85 0c 01 00 00    	jne    1a48 <free@plt+0x1270>
    193c:	8b 45 b4             	mov    -0x4c(%ebp),%eax
    193f:	83 c0 0d             	add    $0xd,%eax
    1942:	89 45 e0             	mov    %eax,-0x20(%ebp)
    1945:	e9 5e fb ff ff       	jmp    14a8 <free@plt+0xcd0>
    194a:	8b 75 b4             	mov    -0x4c(%ebp),%esi
    194d:	b9 07 00 00 00       	mov    $0x7,%ecx
    1952:	8d bb 40 cf ff ff    	lea    -0x30c0(%ebx),%edi
    1958:	f3 a6                	repz cmpsb %es:(%edi),%ds:(%esi)
    195a:	0f 85 b5 00 00 00    	jne    1a15 <free@plt+0x123d>
    1960:	8b 45 b4             	mov    -0x4c(%ebp),%eax
    1963:	83 c0 08             	add    $0x8,%eax
    1966:	89 83 f0 fe ff ff    	mov    %eax,-0x110(%ebx)
    196c:	e9 37 fb ff ff       	jmp    14a8 <free@plt+0xcd0>
    1971:	8b 75 b4             	mov    -0x4c(%ebp),%esi
    1974:	b9 08 00 00 00       	mov    $0x8,%ecx
    1979:	8d bb 60 cd ff ff    	lea    -0x32a0(%ebx),%edi
    197f:	f3 a6                	repz cmpsb %es:(%edi),%ds:(%esi)
    1981:	0f 85 21 fb ff ff    	jne    14a8 <free@plt+0xcd0>
    1987:	8b 45 b4             	mov    -0x4c(%ebp),%eax
    198a:	80 78 09 00          	cmpb   $0x0,0x9(%eax)
    198e:	0f 95 c0             	setne  %al
    1991:	0f b6 c0             	movzbl %al,%eax
    1994:	89 83 f8 fc ff ff    	mov    %eax,-0x308(%ebx)
    199a:	e9 09 fb ff ff       	jmp    14a8 <free@plt+0xcd0>
    199f:	c7 83 f0 fc ff ff 01 	movl   $0x1,-0x310(%ebx)
    19a6:	00 00 00 
    19a9:	e9 28 fc ff ff       	jmp    15d6 <free@plt+0xdfe>
    19ae:	0f b6 11             	movzbl (%ecx),%edx
    19b1:	84 d2                	test   %dl,%dl
    19b3:	74 31                	je     19e6 <free@plt+0x120e>
    19b5:	80 fa 2e             	cmp    $0x2e,%dl
    19b8:	0f 85 ea fa ff ff    	jne    14a8 <free@plt+0xcd0>
    19be:	8b 4d e4             	mov    -0x1c(%ebp),%ecx
    19c1:	83 45 e4 01          	addl   $0x1,-0x1c(%ebp)
    19c5:	c1 e1 03             	shl    $0x3,%ecx
    19c8:	f7 d9                	neg    %ecx
    19ca:	83 c1 10             	add    $0x10,%ecx
    19cd:	d3 e0                	shl    %cl,%eax
    19cf:	09 c6                	or     %eax,%esi
    19d1:	83 7d e4 03          	cmpl   $0x3,-0x1c(%ebp)
    19d5:	0f 84 3d fd ff ff    	je     1718 <free@plt+0xf40>
    19db:	8b 7d e8             	mov    -0x18(%ebp),%edi
    19de:	83 c7 01             	add    $0x1,%edi
    19e1:	e9 ee fc ff ff       	jmp    16d4 <free@plt+0xefc>
    19e6:	b9 02 00 00 00       	mov    $0x2,%ecx
    19eb:	2b 4d e4             	sub    -0x1c(%ebp),%ecx
    19ee:	c1 e1 03             	shl    $0x3,%ecx
    19f1:	d3 e0                	shl    %cl,%eax
    19f3:	09 c6                	or     %eax,%esi
    19f5:	e9 1e fd ff ff       	jmp    1718 <free@plt+0xf40>
    19fa:	8b 45 b4             	mov    -0x4c(%ebp),%eax
    19fd:	80 78 0e 31          	cmpb   $0x31,0xe(%eax)
    1a01:	0f 95 c0             	setne  %al
    1a04:	0f b6 c0             	movzbl %al,%eax
    1a07:	83 e8 01             	sub    $0x1,%eax
    1a0a:	89 83 34 fe ff ff    	mov    %eax,-0x1cc(%ebx)
    1a10:	e9 93 fa ff ff       	jmp    14a8 <free@plt+0xcd0>
    1a15:	8b 75 b4             	mov    -0x4c(%ebp),%esi
    1a18:	b9 07 00 00 00       	mov    $0x7,%ecx
    1a1d:	8d bb 4f cd ff ff    	lea    -0x32b1(%ebx),%edi
    1a23:	f3 a6                	repz cmpsb %es:(%edi),%ds:(%esi)
    1a25:	0f 85 7d fa ff ff    	jne    14a8 <free@plt+0xcd0>
    1a2b:	8b 45 b4             	mov    -0x4c(%ebp),%eax
    1a2e:	80 78 08 00          	cmpb   $0x0,0x8(%eax)
    1a32:	0f 84 70 fa ff ff    	je     14a8 <free@plt+0xcd0>
    1a38:	83 c0 08             	add    $0x8,%eax
    1a3b:	89 83 38 fe ff ff    	mov    %eax,-0x1c8(%ebx)
    1a41:	e9 62 fa ff ff       	jmp    14a8 <free@plt+0xcd0>
    1a46:	66 90                	xchg   %ax,%ax
    1a48:	8b 83 28 ff ff ff    	mov    -0xd8(%ebx),%eax
    1a4e:	85 c0                	test   %eax,%eax
    1a50:	0f 85 52 fa ff ff    	jne    14a8 <free@plt+0xcd0>
    1a56:	8b 75 b4             	mov    -0x4c(%ebp),%esi
    1a59:	b9 0c 00 00 00       	mov    $0xc,%ecx
    1a5e:	8d bb 97 cd ff ff    	lea    -0x3269(%ebx),%edi
    1a64:	f3 a6                	repz cmpsb %es:(%edi),%ds:(%esi)
    1a66:	0f 85 3c fa ff ff    	jne    14a8 <free@plt+0xcd0>
    1a6c:	c7 83 fc fc ff ff 01 	movl   $0x1,-0x304(%ebx)
    1a73:	00 00 00 
    1a76:	e9 2d fa ff ff       	jmp    14a8 <free@plt+0xcd0>
    1a7b:	8d b3 4c a2 ff ff    	lea    -0x5db4(%ebx),%esi
    1a81:	89 34 24             	mov    %esi,(%esp)
    1a84:	e8 07 2f 01 00       	call   14990 <_dl_make_stack_executable+0x3150>
    1a89:	89 34 24             	mov    %esi,(%esp)
    1a8c:	c7 44 24 04 00 00 00 	movl   $0x0,0x4(%esp)
    1a93:	00 
    1a94:	e8 97 4d 01 00       	call   16830 <calloc+0x1680>
    1a99:	80 78 01 00          	cmpb   $0x0,0x1(%eax)
    1a9d:	8d 70 01             	lea    0x1(%eax),%esi
    1aa0:	75 df                	jne    1a81 <free@plt+0x12a9>
    1aa2:	8d 83 13 ce ff ff    	lea    -0x31ed(%ebx),%eax
    1aa8:	c7 44 24 04 00 00 00 	movl   $0x0,0x4(%esp)
    1aaf:	00 
    1ab0:	89 04 24             	mov    %eax,(%esp)
    1ab3:	e8 48 49 01 00       	call   16400 <calloc+0x1250>
    1ab8:	85 c0                	test   %eax,%eax
    1aba:	74 18                	je     1ad4 <free@plt+0x12fc>
    1abc:	8d 83 23 ce ff ff    	lea    -0x31dd(%ebx),%eax
    1ac2:	89 04 24             	mov    %eax,(%esp)
    1ac5:	e8 c6 2e 01 00       	call   14990 <_dl_make_stack_executable+0x3150>
    1aca:	c7 83 cc fc ff ff 00 	movl   $0x0,-0x334(%ebx)
    1ad1:	00 00 00 
    1ad4:	8b 75 dc             	mov    -0x24(%ebp),%esi
    1ad7:	85 f6                	test   %esi,%esi
    1ad9:	0f 84 fa fa ff ff    	je     15d9 <free@plt+0xe01>
    1adf:	c7 04 24 05 00 00 00 	movl   $0x5,(%esp)
    1ae6:	e8 59 4b 01 00       	call   16644 <calloc+0x1494>
    1aeb:	e9 e9 fa ff ff       	jmp    15d9 <free@plt+0xe01>
    1af0:	55                   	push   %ebp
    1af1:	31 c9                	xor    %ecx,%ecx
    1af3:	89 e5                	mov    %esp,%ebp
    1af5:	57                   	push   %edi
    1af6:	56                   	push   %esi
    1af7:	53                   	push   %ebx
    1af8:	e8 2e 55 01 00       	call   1702b <calloc+0x1e7b>
    1afd:	81 c3 f7 b4 01 00    	add    $0x1b4f7,%ebx
    1b03:	83 ec 20             	sub    $0x20,%esp
    1b06:	8b 93 ac 05 00 00    	mov    0x5ac(%ebx),%edx
    1b0c:	8b 83 94 05 00 00    	mov    0x594(%ebx),%eax
    1b12:	85 d2                	test   %edx,%edx
    1b14:	89 83 9c 05 00 00    	mov    %eax,0x59c(%ebx)
    1b1a:	74 0a                	je     1b26 <free@plt+0x134e>
    1b1c:	83 c4 20             	add    $0x20,%esp
    1b1f:	89 c8                	mov    %ecx,%eax
    1b21:	5b                   	pop    %ebx
    1b22:	5e                   	pop    %esi
    1b23:	5f                   	pop    %edi
    1b24:	5d                   	pop    %ebp
    1b25:	c3                   	ret    
    1b26:	8d 70 3f             	lea    0x3f(%eax),%esi
    1b29:	8d 04 c5 00 02 00 00 	lea    0x200(,%eax,8),%eax
    1b30:	c7 44 24 04 01 00 00 	movl   $0x1,0x4(%esp)
    1b37:	00 
    1b38:	89 04 24             	mov    %eax,(%esp)
    1b3b:	e8 68 ec ff ff       	call   7a8 <calloc@plt>
    1b40:	8b bb 50 00 00 00    	mov    0x50(%ebx),%edi
    1b46:	85 ff                	test   %edi,%edi
    1b48:	89 83 98 05 00 00    	mov    %eax,0x598(%ebx)
    1b4e:	89 30                	mov    %esi,(%eax)
    1b50:	c7 40 04 00 00 00 00 	movl   $0x0,0x4(%eax)
    1b57:	0f 85 23 01 00 00    	jne    1c80 <free@plt+0x14a8>
    1b5d:	8b 93 2c 00 00 00    	mov    0x2c(%ebx),%edx
    1b63:	31 c9                	xor    %ecx,%ecx
    1b65:	31 f6                	xor    %esi,%esi
    1b67:	85 d2                	test   %edx,%edx
    1b69:	74 1a                	je     1b85 <free@plt+0x13ad>
    1b6b:	8b b2 30 02 00 00    	mov    0x230(%edx),%esi
    1b71:	85 f6                	test   %esi,%esi
    1b73:	74 07                	je     1b7c <free@plt+0x13a4>
    1b75:	89 54 c8 0c          	mov    %edx,0xc(%eax,%ecx,8)
    1b79:	83 c1 01             	add    $0x1,%ecx
    1b7c:	8b 52 0c             	mov    0xc(%edx),%edx
    1b7f:	85 d2                	test   %edx,%edx
    1b81:	75 e8                	jne    1b6b <free@plt+0x1393>
    1b83:	89 ce                	mov    %ecx,%esi
    1b85:	39 b3 94 05 00 00    	cmp    %esi,0x594(%ebx)
    1b8b:	0f 85 c5 00 00 00    	jne    1c56 <free@plt+0x147e>
    1b91:	e8 0a f8 00 00       	call   113a0 <_dl_allocate_tls+0x80>
    1b96:	e8 c5 f6 00 00       	call   11260 <___tls_get_addr+0x70>
    1b9b:	85 c0                	test   %eax,%eax
    1b9d:	89 c1                	mov    %eax,%ecx
    1b9f:	0f 84 8d 00 00 00    	je     1c32 <free@plt+0x145a>
    1ba5:	8b 40 04             	mov    0x4(%eax),%eax
    1ba8:	8d 55 e4             	lea    -0x1c(%ebp),%edx
    1bab:	89 83 ac 05 00 00    	mov    %eax,0x5ac(%ebx)
    1bb1:	8b 83 54 fe ff ff    	mov    -0x1ac(%ebx),%eax
    1bb7:	89 09                	mov    %ecx,(%ecx)
    1bb9:	89 49 08             	mov    %ecx,0x8(%ecx)
    1bbc:	89 41 10             	mov    %eax,0x10(%ecx)
    1bbf:	b8 f3 00 00 00       	mov    $0xf3,%eax
    1bc4:	c7 45 e4 ff ff ff ff 	movl   $0xffffffff,-0x1c(%ebp)
    1bcb:	89 4d e8             	mov    %ecx,-0x18(%ebp)
    1bce:	c7 45 ec ff ff 0f 00 	movl   $0xfffff,-0x14(%ebp)
    1bd5:	c7 45 f0 51 00 00 00 	movl   $0x51,-0x10(%ebp)
    1bdc:	87 d3                	xchg   %edx,%ebx
    1bde:	cd 80                	int    $0x80
    1be0:	87 d3                	xchg   %edx,%ebx
    1be2:	85 c0                	test   %eax,%eax
    1be4:	8d bb d0 b2 ff ff    	lea    -0x4d30(%ebx),%edi
    1bea:	8d b3 10 b3 ff ff    	lea    -0x4cf0(%ebx),%esi
    1bf0:	75 1e                	jne    1c10 <free@plt+0x1438>
    1bf2:	8b 45 e4             	mov    -0x1c(%ebp),%eax
    1bf5:	8d 04 c5 03 00 00 00 	lea    0x3(,%eax,8),%eax
    1bfc:	8e e8                	mov    %eax,%gs
    1bfe:	c6 83 f0 05 00 00 01 	movb   $0x1,0x5f0(%ebx)
    1c05:	e9 12 ff ff ff       	jmp    1b1c <free@plt+0x1344>
    1c0a:	8d b6 00 00 00 00    	lea    0x0(%esi),%esi
    1c10:	89 7c 24 08          	mov    %edi,0x8(%esp)
    1c14:	89 74 24 04          	mov    %esi,0x4(%esp)
    1c18:	c7 04 24 02 00 00 00 	movl   $0x2,(%esp)
    1c1f:	e8 cc d6 00 00       	call   f2f0 <_dl_debug_state+0x5e0>
    1c24:	c7 04 24 7f 00 00 00 	movl   $0x7f,(%esp)
    1c2b:	e8 14 4a 01 00       	call   16644 <calloc+0x1494>
    1c30:	eb de                	jmp    1c10 <free@plt+0x1438>
    1c32:	8d b3 98 b2 ff ff    	lea    -0x4d68(%ebx),%esi
    1c38:	89 74 24 04          	mov    %esi,0x4(%esp)
    1c3c:	c7 04 24 02 00 00 00 	movl   $0x2,(%esp)
    1c43:	e8 a8 d6 00 00       	call   f2f0 <_dl_debug_state+0x5e0>
    1c48:	c7 04 24 7f 00 00 00 	movl   $0x7f,(%esp)
    1c4f:	e8 f0 49 01 00       	call   16644 <calloc+0x1494>
    1c54:	eb e2                	jmp    1c38 <free@plt+0x1460>
    1c56:	8d 83 c8 d0 ff ff    	lea    -0x2f38(%ebx),%eax
    1c5c:	89 44 24 0c          	mov    %eax,0xc(%esp)
    1c60:	8d 83 9a cc ff ff    	lea    -0x3366(%ebx),%eax
    1c66:	89 44 24 04          	mov    %eax,0x4(%esp)
    1c6a:	8d 83 70 b2 ff ff    	lea    -0x4d90(%ebx),%eax
    1c70:	c7 44 24 08 ef 02 00 	movl   $0x2ef,0x8(%esp)
    1c77:	00 
    1c78:	89 04 24             	mov    %eax,(%esp)
    1c7b:	e8 e0 2d 01 00       	call   14a60 <_dl_make_stack_executable+0x3220>
    1c80:	8d 83 c8 d0 ff ff    	lea    -0x2f38(%ebx),%eax
    1c86:	89 44 24 0c          	mov    %eax,0xc(%esp)
    1c8a:	8d 83 9a cc ff ff    	lea    -0x3366(%ebx),%eax
    1c90:	89 44 24 04          	mov    %eax,0x4(%esp)
    1c94:	8d 83 3c b2 ff ff    	lea    -0x4dc4(%ebx),%eax
    1c9a:	c7 44 24 08 e3 02 00 	movl   $0x2e3,0x8(%esp)
    1ca1:	00 
    1ca2:	89 04 24             	mov    %eax,(%esp)
    1ca5:	e8 b6 2d 01 00       	call   14a60 <_dl_make_stack_executable+0x3220>
    1caa:	8d b6 00 00 00 00    	lea    0x0(%esi),%esi
    1cb0:	55                   	push   %ebp
    1cb1:	89 e5                	mov    %esp,%ebp
    1cb3:	83 ec 20             	sub    $0x20,%esp
    1cb6:	89 5d f4             	mov    %ebx,-0xc(%ebp)
    1cb9:	8d 45 f1             	lea    -0xf(%ebp),%eax
    1cbc:	e8 6a 53 01 00       	call   1702b <calloc+0x1e7b>
    1cc1:	81 c3 33 b3 01 00    	add    $0x1b333,%ebx
    1cc7:	89 45 ec             	mov    %eax,-0x14(%ebp)
    1cca:	89 7d fc             	mov    %edi,-0x4(%ebp)
    1ccd:	89 75 f8             	mov    %esi,-0x8(%ebp)
    1cd0:	c7 45 f0 00 00 00 00 	movl   $0x0,-0x10(%ebp)
    1cd7:	c7 44 24 04 00 00 00 	movl   $0x0,0x4(%esp)
    1cde:	00 
    1cdf:	8d 83 31 ce ff ff    	lea    -0x31cf(%ebx),%eax
    1ce5:	89 04 24             	mov    %eax,(%esp)
    1ce8:	e8 d3 45 01 00       	call   162c0 <calloc+0x1110>
    1ced:	85 c0                	test   %eax,%eax
    1cef:	89 c7                	mov    %eax,%edi
    1cf1:	78 26                	js     1d19 <free@plt+0x1541>
    1cf3:	8b 4d ec             	mov    -0x14(%ebp),%ecx
    1cf6:	c7 44 24 08 03 00 00 	movl   $0x3,0x8(%esp)
    1cfd:	00 
    1cfe:	89 04 24             	mov    %eax,(%esp)
    1d01:	89 4c 24 04          	mov    %ecx,0x4(%esp)
    1d05:	e8 36 46 01 00       	call   16340 <calloc+0x1190>
    1d0a:	89 3c 24             	mov    %edi,(%esp)
    1d0d:	89 c6                	mov    %eax,%esi
    1d0f:	e8 ec 45 01 00       	call   16300 <calloc+0x1150>
    1d14:	83 fe 03             	cmp    $0x3,%esi
    1d17:	74 5f                	je     1d78 <free@plt+0x15a0>
    1d19:	8b 45 ec             	mov    -0x14(%ebp),%eax
    1d1c:	c6 40 02 ff          	movb   $0xff,0x2(%eax)
    1d20:	c6 40 01 0a          	movb   $0xa,0x1(%eax)
    1d24:	31 c0                	xor    %eax,%eax
    1d26:	8b 4d ec             	mov    -0x14(%ebp),%ecx
    1d29:	c1 e0 08             	shl    $0x8,%eax
    1d2c:	33 45 f0             	xor    -0x10(%ebp),%eax
    1d2f:	81 e6 f0 ff 7f 00    	and    $0x7ffff0,%esi
    1d35:	8d 8b 60 06 00 00    	lea    0x660(%ebx),%ecx
    1d3b:	c1 e6 09             	shl    $0x9,%esi
    1d3e:	81 e1 00 ff 7f 00    	and    $0x7fff00,%ecx
    1d44:	31 f0                	xor    %esi,%eax
    1d46:	c1 e1 03             	shl    $0x3,%ecx
    1d49:	31 c8                	xor    %ecx,%eax
    1d4b:	65 a3 14 00 00 00    	mov    %eax,%gs:0x14
    1d51:	8b 8b 90 fe ff ff    	mov    -0x170(%ebx),%ecx
    1d57:	85 c9                	test   %ecx,%ecx
    1d59:	74 0c                	je     1d67 <free@plt+0x158f>
    1d5b:	65 a3 18 00 00 00    	mov    %eax,%gs:0x18
    1d61:	89 83 04 ff ff ff    	mov    %eax,-0xfc(%ebx)
    1d67:	8b 5d f4             	mov    -0xc(%ebp),%ebx
    1d6a:	8b 75 f8             	mov    -0x8(%ebp),%esi
    1d6d:	8b 7d fc             	mov    -0x4(%ebp),%edi
    1d70:	89 ec                	mov    %ebp,%esp
    1d72:	5d                   	pop    %ebp
    1d73:	c3                   	ret    
    1d74:	8d 74 26 00          	lea    0x0(%esi,%eiz,1),%esi
    1d78:	8b 45 f0             	mov    -0x10(%ebp),%eax
    1d7b:	eb ce                	jmp    1d4b <free@plt+0x1573>
    1d7d:	8d 76 00             	lea    0x0(%esi),%esi
    1d80:	55                   	push   %ebp
    1d81:	89 e5                	mov    %esp,%ebp
    1d83:	57                   	push   %edi
    1d84:	56                   	push   %esi
    1d85:	53                   	push   %ebx
    1d86:	e8 a0 52 01 00       	call   1702b <calloc+0x1e7b>
    1d8b:	81 c3 69 b2 01 00    	add    $0x1b269,%ebx
    1d91:	81 ec ac 01 00 00    	sub    $0x1ac,%esp
    1d97:	8d 83 6c 38 fe ff    	lea    -0x1c794(%ebx),%eax
    1d9d:	89 83 a8 02 00 00    	mov    %eax,0x2a8(%ebx)
    1da3:	8d 83 bc d3 fe ff    	lea    -0x12c44(%ebx),%eax
    1da9:	89 83 b4 05 00 00    	mov    %eax,0x5b4(%ebx)
    1daf:	8d 83 8c 38 fe ff    	lea    -0x1c774(%ebx),%eax
    1db5:	89 83 80 05 00 00    	mov    %eax,0x580(%ebx)
    1dbb:	8d 83 9c 38 fe ff    	lea    -0x1c764(%ebx),%eax
    1dc1:	89 83 84 05 00 00    	mov    %eax,0x584(%ebx)
    1dc7:	8d 83 4c 48 ff ff    	lea    -0xb7b4(%ebx),%eax
    1dcd:	89 83 88 05 00 00    	mov    %eax,0x588(%ebx)
    1dd3:	8d 45 ec             	lea    -0x14(%ebp),%eax
    1dd6:	e8 55 f6 ff ff       	call   1430 <free@plt+0xc58>
    1ddb:	8b 55 10             	mov    0x10(%ebp),%edx
    1dde:	8d 83 1c 38 fe ff    	lea    -0x1c7e4(%ebx),%eax
    1de4:	39 02                	cmp    %eax,(%edx)
    1de6:	0f 85 c2 01 00 00    	jne    1fae <free@plt+0x17d6>
    1dec:	8b 83 ac fc ff ff    	mov    -0x354(%ebx),%eax
    1df2:	8d 8b 3e ce ff ff    	lea    -0x31c2(%ebx),%ecx
    1df8:	8d b3 45 ce ff ff    	lea    -0x31bb(%ebx),%esi
    1dfe:	8d bb 4e ce ff ff    	lea    -0x31b2(%ebx),%edi
    1e04:	8d 93 6d ce ff ff    	lea    -0x3193(%ebx),%edx
    1e0a:	8b 00                	mov    (%eax),%eax
    1e0c:	89 8d 04 ff ff ff    	mov    %ecx,-0xfc(%ebp)
    1e12:	89 b5 00 ff ff ff    	mov    %esi,-0x100(%ebp)
    1e18:	89 bd fc fe ff ff    	mov    %edi,-0x104(%ebp)
    1e1e:	89 83 b0 02 00 00    	mov    %eax,0x2b0(%ebx)
    1e24:	8d 83 5d ce ff ff    	lea    -0x31a3(%ebx),%eax
    1e2a:	89 85 f8 fe ff ff    	mov    %eax,-0x108(%ebp)
    1e30:	89 95 f4 fe ff ff    	mov    %edx,-0x10c(%ebp)
    1e36:	66 90                	xchg   %ax,%ax
    1e38:	8b 8b fc fe ff ff    	mov    -0x104(%ebx),%ecx
    1e3e:	89 8d 10 ff ff ff    	mov    %ecx,-0xf0(%ebp)
    1e44:	83 e9 01             	sub    $0x1,%ecx
    1e47:	0f 8e 39 01 00 00    	jle    1f86 <free@plt+0x17ae>
    1e4d:	8b 8b ac fc ff ff    	mov    -0x354(%ebx),%ecx
    1e53:	8b bd 04 ff ff ff    	mov    -0xfc(%ebp),%edi
    1e59:	8b 71 04             	mov    0x4(%ecx),%esi
    1e5c:	89 8d 70 fe ff ff    	mov    %ecx,-0x190(%ebp)
    1e62:	b9 07 00 00 00       	mov    $0x7,%ecx
    1e67:	89 b5 68 fe ff ff    	mov    %esi,-0x198(%ebp)
    1e6d:	f3 a6                	repz cmpsb %es:(%edi),%ds:(%esi)
    1e6f:	75 28                	jne    1e99 <free@plt+0x16c1>
    1e71:	c7 45 ec 01 00 00 00 	movl   $0x1,-0x14(%ebp)
    1e78:	c7 83 f4 fc ff ff ff 	movl   $0xffffffff,-0x30c(%ebx)
    1e7f:	ff ff ff 
    1e82:	83 83 00 ff ff ff 01 	addl   $0x1,-0x100(%ebx)
    1e89:	83 ab fc fe ff ff 01 	subl   $0x1,-0x104(%ebx)
    1e90:	83 83 ac fc ff ff 04 	addl   $0x4,-0x354(%ebx)
    1e97:	eb 9f                	jmp    1e38 <free@plt+0x1660>
    1e99:	8b b5 68 fe ff ff    	mov    -0x198(%ebp),%esi
    1e9f:	b9 09 00 00 00       	mov    $0x9,%ecx
    1ea4:	8b bd 00 ff ff ff    	mov    -0x100(%ebp),%edi
    1eaa:	f3 a6                	repz cmpsb %es:(%edi),%ds:(%esi)
    1eac:	75 21                	jne    1ecf <free@plt+0x16f7>
    1eae:	c7 45 ec 02 00 00 00 	movl   $0x2,-0x14(%ebp)
    1eb5:	83 83 00 ff ff ff 01 	addl   $0x1,-0x100(%ebx)
    1ebc:	83 ab fc fe ff ff 01 	subl   $0x1,-0x104(%ebx)
    1ec3:	83 83 ac fc ff ff 04 	addl   $0x4,-0x354(%ebx)
    1eca:	e9 69 ff ff ff       	jmp    1e38 <free@plt+0x1660>
    1ecf:	8b b5 68 fe ff ff    	mov    -0x198(%ebp),%esi
    1ed5:	b9 0f 00 00 00       	mov    $0xf,%ecx
    1eda:	8b bd fc fe ff ff    	mov    -0x104(%ebp),%edi
    1ee0:	f3 a6                	repz cmpsb %es:(%edi),%ds:(%esi)
    1ee2:	75 32                	jne    1f16 <free@plt+0x173e>
    1ee4:	83 bd 10 ff ff ff 02 	cmpl   $0x2,-0xf0(%ebp)
    1eeb:	74 29                	je     1f16 <free@plt+0x173e>
    1eed:	8b 95 70 fe ff ff    	mov    -0x190(%ebp),%edx
    1ef3:	83 83 00 ff ff ff 02 	addl   $0x2,-0x100(%ebx)
    1efa:	83 ab fc fe ff ff 02 	subl   $0x2,-0x104(%ebx)
    1f01:	83 83 ac fc ff ff 08 	addl   $0x8,-0x354(%ebx)
    1f08:	8b 42 08             	mov    0x8(%edx),%eax
    1f0b:	89 83 ec fe ff ff    	mov    %eax,-0x114(%ebx)
    1f11:	e9 22 ff ff ff       	jmp    1e38 <free@plt+0x1660>
    1f16:	8b b5 68 fe ff ff    	mov    -0x198(%ebp),%esi
    1f1c:	b9 10 00 00 00       	mov    $0x10,%ecx
    1f21:	8b bd f8 fe ff ff    	mov    -0x108(%ebp),%edi
    1f27:	f3 a6                	repz cmpsb %es:(%edi),%ds:(%esi)
    1f29:	75 0d                	jne    1f38 <free@plt+0x1760>
    1f2b:	83 bd 10 ff ff ff 02 	cmpl   $0x2,-0xf0(%ebp)
    1f32:	0f 85 1e 0e 00 00    	jne    2d56 <free@plt+0x257e>
    1f38:	8b b5 68 fe ff ff    	mov    -0x198(%ebp),%esi
    1f3e:	b9 08 00 00 00       	mov    $0x8,%ecx
    1f43:	8b bd f4 fe ff ff    	mov    -0x10c(%ebp),%edi
    1f49:	f3 a6                	repz cmpsb %es:(%edi),%ds:(%esi)
    1f4b:	0f 85 a4 0e 00 00    	jne    2df5 <free@plt+0x261d>
    1f51:	83 bd 10 ff ff ff 02 	cmpl   $0x2,-0xf0(%ebp)
    1f58:	0f 84 97 0e 00 00    	je     2df5 <free@plt+0x261d>
    1f5e:	8b 95 70 fe ff ff    	mov    -0x190(%ebp),%edx
    1f64:	8b 42 08             	mov    0x8(%edx),%eax
    1f67:	e8 64 f1 ff ff       	call   10d0 <free@plt+0x8f8>
    1f6c:	83 83 00 ff ff ff 02 	addl   $0x2,-0x100(%ebx)
    1f73:	83 ab fc fe ff ff 02 	subl   $0x2,-0x104(%ebx)
    1f7a:	83 83 ac fc ff ff 08 	addl   $0x8,-0x354(%ebx)
    1f81:	e9 b2 fe ff ff       	jmp    1e38 <free@plt+0x1660>
    1f86:	8d b3 38 b3 ff ff    	lea    -0x4cc8(%ebx),%esi
    1f8c:	8d 74 26 00          	lea    0x0(%esi,%eiz,1),%esi
    1f90:	89 74 24 04          	mov    %esi,0x4(%esp)
    1f94:	c7 04 24 02 00 00 00 	movl   $0x2,(%esp)
    1f9b:	e8 50 d3 00 00       	call   f2f0 <_dl_debug_state+0x5e0>
    1fa0:	c7 04 24 7f 00 00 00 	movl   $0x7f,(%esp)
    1fa7:	e8 98 46 01 00       	call   16644 <calloc+0x1494>
    1fac:	eb e2                	jmp    1f90 <free@plt+0x17b8>
    1fae:	8d 93 4f cf ff ff    	lea    -0x30b1(%ebx),%edx
    1fb4:	31 c9                	xor    %ecx,%ecx
    1fb6:	89 d0                	mov    %edx,%eax
    1fb8:	c7 44 24 08 00 00 00 	movl   $0x0,0x8(%esp)
    1fbf:	00 
    1fc0:	c7 44 24 04 00 00 00 	movl   $0x20000000,0x4(%esp)
    1fc7:	20 
    1fc8:	c7 04 24 00 00 00 00 	movl   $0x0,(%esp)
    1fcf:	e8 ac 7f 00 00       	call   9f80 <_dl_rtld_di_serinfo+0x2ca0>
    1fd4:	83 ec 0c             	sub    $0xc,%esp
    1fd7:	85 c0                	test   %eax,%eax
    1fd9:	89 85 1c ff ff ff    	mov    %eax,-0xe4(%ebp)
    1fdf:	0f 84 ab 19 00 00    	je     3990 <free@plt+0x31b8>
    1fe5:	8b 85 1c ff ff ff    	mov    -0xe4(%ebp),%eax
    1feb:	3b 83 2c 00 00 00    	cmp    0x2c(%ebx),%eax
    1ff1:	0f 85 f9 18 00 00    	jne    38f0 <free@plt+0x3118>
    1ff7:	8b 7d 10             	mov    0x10(%ebp),%edi
    1ffa:	8b 95 1c ff ff ff    	mov    -0xe4(%ebp),%edx
    2000:	0f b7 75 0c          	movzwl 0xc(%ebp),%esi
    2004:	8b 4d 08             	mov    0x8(%ebp),%ecx
    2007:	8b 07                	mov    (%edi),%eax
    2009:	c6 85 27 ff ff ff 00 	movb   $0x0,-0xd9(%ebp)
    2010:	66 89 b2 58 01 00 00 	mov    %si,0x158(%edx)
    2017:	89 8a 50 01 00 00    	mov    %ecx,0x150(%edx)
    201d:	89 82 54 01 00 00    	mov    %eax,0x154(%edx)
    2023:	8b 85 1c ff ff ff    	mov    -0xe4(%ebp),%eax
    2029:	8b 7d 08             	mov    0x8(%ebp),%edi
    202c:	8b 55 08             	mov    0x8(%ebp),%edx
    202f:	c6 85 25 ff ff ff 00 	movb   $0x0,-0xdb(%ebp)
    2036:	83 80 90 01 00 00 01 	addl   $0x1,0x190(%eax)
    203d:	c7 80 b0 01 00 00 00 	movl   $0x0,0x1b0(%eax)
    2044:	00 00 00 
    2047:	c7 80 b4 01 00 00 00 	movl   $0x0,0x1b4(%eax)
    204e:	00 00 00 
    2051:	c7 80 ac 01 00 00 ff 	movl   $0xffffffff,0x1ac(%eax)
    2058:	ff ff ff 
    205b:	c1 65 0c 05          	shll   $0x5,0xc(%ebp)
    205f:	03 7d 0c             	add    0xc(%ebp),%edi
    2062:	39 fa                	cmp    %edi,%edx
    2064:	0f 83 f9 00 00 00    	jae    2163 <free@plt+0x198b>
    206a:	8d 8b d8 05 00 00    	lea    0x5d8(%ebx),%ecx
    2070:	8d b3 e4 05 00 00    	lea    0x5e4(%ebx),%esi
    2076:	89 8d 78 fe ff ff    	mov    %ecx,-0x188(%ebp)
    207c:	89 b5 74 fe ff ff    	mov    %esi,-0x18c(%ebp)
    2082:	eb 32                	jmp    20b6 <free@plt+0x18de>
    2084:	83 f8 02             	cmp    $0x2,%eax
    2087:	0f 84 8a 07 00 00    	je     2817 <free@plt+0x203f>
    208d:	83 f8 03             	cmp    $0x3,%eax
    2090:	0f 84 f4 06 00 00    	je     278a <free@plt+0x1fb2>
    2096:	83 e8 01             	sub    $0x1,%eax
    2099:	8d b4 26 00 00 00 00 	lea    0x0(%esi,%eiz,1),%esi
    20a0:	0f 84 80 06 00 00    	je     2726 <free@plt+0x1f4e>
    20a6:	83 c2 20             	add    $0x20,%edx
    20a9:	39 fa                	cmp    %edi,%edx
    20ab:	90                   	nop    
    20ac:	8d 74 26 00          	lea    0x0(%esi,%eiz,1),%esi
    20b0:	0f 83 ad 00 00 00    	jae    2163 <free@plt+0x198b>
    20b6:	8b 02                	mov    (%edx),%eax
    20b8:	83 f8 06             	cmp    $0x6,%eax
    20bb:	0f 84 52 06 00 00    	je     2713 <free@plt+0x1f3b>
    20c1:	8d b4 26 00 00 00 00 	lea    0x0(%esi,%eiz,1),%esi
    20c8:	76 ba                	jbe    2084 <free@plt+0x18ac>
    20ca:	3d 51 e5 74 64       	cmp    $0x6474e551,%eax
    20cf:	90                   	nop    
    20d0:	0f 84 2f 06 00 00    	je     2705 <free@plt+0x1f2d>
    20d6:	3d 52 e5 74 64       	cmp    $0x6474e552,%eax
    20db:	90                   	nop    
    20dc:	8d 74 26 00          	lea    0x0(%esi,%eiz,1),%esi
    20e0:	0f 84 02 06 00 00    	je     26e8 <free@plt+0x1f10>
    20e6:	83 f8 07             	cmp    $0x7,%eax
    20e9:	8d b4 26 00 00 00 00 	lea    0x0(%esi,%eiz,1),%esi
    20f0:	75 b4                	jne    20a6 <free@plt+0x18ce>
    20f2:	8b 42 14             	mov    0x14(%edx),%eax
    20f5:	85 c0                	test   %eax,%eax
    20f7:	90                   	nop    
    20f8:	74 ac                	je     20a6 <free@plt+0x18ce>
    20fa:	8b b5 1c ff ff ff    	mov    -0xe4(%ebp),%esi
    2100:	89 86 30 02 00 00    	mov    %eax,0x230(%esi)
    2106:	8b 42 1c             	mov    0x1c(%edx),%eax
    2109:	89 86 34 02 00 00    	mov    %eax,0x234(%esi)
    210f:	8b 42 1c             	mov    0x1c(%edx),%eax
    2112:	85 c0                	test   %eax,%eax
    2114:	0f 84 2d 0c 00 00    	je     2d47 <free@plt+0x256f>
    211a:	8b 8d 1c ff ff ff    	mov    -0xe4(%ebp),%ecx
    2120:	83 e8 01             	sub    $0x1,%eax
    2123:	23 42 08             	and    0x8(%edx),%eax
    2126:	89 81 38 02 00 00    	mov    %eax,0x238(%ecx)
    212c:	8b 42 10             	mov    0x10(%edx),%eax
    212f:	8b b5 1c ff ff ff    	mov    -0xe4(%ebp),%esi
    2135:	89 86 2c 02 00 00    	mov    %eax,0x22c(%esi)
    213b:	8b 42 08             	mov    0x8(%edx),%eax
    213e:	83 c2 20             	add    $0x20,%edx
    2141:	39 fa                	cmp    %edi,%edx
    2143:	c7 86 40 02 00 00 01 	movl   $0x1,0x240(%esi)
    214a:	00 00 00 
    214d:	c7 83 94 05 00 00 01 	movl   $0x1,0x594(%ebx)
    2154:	00 00 00 
    2157:	89 86 28 02 00 00    	mov    %eax,0x228(%esi)
    215d:	0f 82 53 ff ff ff    	jb     20b6 <free@plt+0x18de>
    2163:	8b b5 1c ff ff ff    	mov    -0xe4(%ebp),%esi
    2169:	8b 86 28 02 00 00    	mov    0x228(%esi),%eax
    216f:	85 c0                	test   %eax,%eax
    2171:	74 08                	je     217b <free@plt+0x19a3>
    2173:	03 06                	add    (%esi),%eax
    2175:	89 86 28 02 00 00    	mov    %eax,0x228(%esi)
    217b:	8b bd 1c ff ff ff    	mov    -0xe4(%ebp),%edi
    2181:	8b 8f b0 01 00 00    	mov    0x1b0(%edi),%ecx
    2187:	85 c9                	test   %ecx,%ecx
    2189:	75 0a                	jne    2195 <free@plt+0x19bd>
    218b:	c7 87 b0 01 00 00 ff 	movl   $0xffffffff,0x1b0(%edi)
    2192:	ff ff ff 
    2195:	8b 85 1c ff ff ff    	mov    -0xe4(%ebp),%eax
    219b:	8b 90 b4 01 00 00    	mov    0x1b4(%eax),%edx
    21a1:	85 d2                	test   %edx,%edx
    21a3:	75 0a                	jne    21af <free@plt+0x19d7>
    21a5:	c7 80 b4 01 00 00 ff 	movl   $0xffffffff,0x1b4(%eax)
    21ac:	ff ff ff 
    21af:	8b 83 c8 02 00 00    	mov    0x2c8(%ebx),%eax
    21b5:	85 c0                	test   %eax,%eax
    21b7:	0f 84 1e 12 00 00    	je     33db <free@plt+0x2c03>
    21bd:	8b bb 04 03 00 00    	mov    0x304(%ebx),%edi
    21c3:	85 ff                	test   %edi,%edi
    21c5:	74 2a                	je     21f1 <free@plt+0x1a19>
    21c7:	8b 83 e0 02 00 00    	mov    0x2e0(%ebx),%eax
    21cd:	8b 70 04             	mov    0x4(%eax),%esi
    21d0:	8b 83 c8 02 00 00    	mov    0x2c8(%ebx),%eax
    21d6:	8b 10                	mov    (%eax),%edx
    21d8:	89 f0                	mov    %esi,%eax
    21da:	03 47 04             	add    0x4(%edi),%eax
    21dd:	89 14 24             	mov    %edx,(%esp)
    21e0:	89 44 24 04          	mov    %eax,0x4(%esp)
    21e4:	e8 b7 47 01 00       	call   169a0 <calloc+0x17f0>
    21e9:	85 c0                	test   %eax,%eax
    21eb:	0f 85 1a 0b 00 00    	jne    2d0b <free@plt+0x2533>
    21f1:	f6 83 40 04 00 00 04 	testb  $0x4,0x440(%ebx)
    21f8:	0f 84 1c 17 00 00    	je     391a <free@plt+0x3142>
    21fe:	80 bd 27 ff ff ff 00 	cmpb   $0x0,-0xd9(%ebp)
    2205:	0f 85 cc 01 00 00    	jne    23d7 <free@plt+0x1bff>
    220b:	8b 95 1c ff ff ff    	mov    -0xe4(%ebp),%edx
    2211:	8b 4a 08             	mov    0x8(%edx),%ecx
    2214:	85 c9                	test   %ecx,%ecx
    2216:	0f 84 b0 01 00 00    	je     23cc <free@plt+0x1bf4>
    221c:	8b 11                	mov    (%ecx),%edx
    221e:	85 d2                	test   %edx,%edx
    2220:	74 45                	je     2267 <free@plt+0x1a8f>
    2222:	be ff ff ff 6f       	mov    $0x6fffffff,%esi
    2227:	eb 13                	jmp    223c <free@plt+0x1a64>
    2229:	8b bd 1c ff ff ff    	mov    -0xe4(%ebp),%edi
    222f:	89 4c 97 20          	mov    %ecx,0x20(%edi,%edx,4)
    2233:	83 c1 08             	add    $0x8,%ecx
    2236:	8b 11                	mov    (%ecx),%edx
    2238:	85 d2                	test   %edx,%edx
    223a:	74 2b                	je     2267 <free@plt+0x1a8f>
    223c:	83 fa 21             	cmp    $0x21,%edx
    223f:	76 e8                	jbe    2229 <free@plt+0x1a51>
    2241:	89 f0                	mov    %esi,%eax
    2243:	29 d0                	sub    %edx,%eax
    2245:	83 f8 0f             	cmp    $0xf,%eax
    2248:	0f 87 dc 05 00 00    	ja     282a <free@plt+0x2052>
    224e:	b8 29 00 00 70       	mov    $0x70000029,%eax
    2253:	29 d0                	sub    %edx,%eax
    2255:	8b 95 1c ff ff ff    	mov    -0xe4(%ebp),%edx
    225b:	89 0c 82             	mov    %ecx,(%edx,%eax,4)
    225e:	83 c1 08             	add    $0x8,%ecx
    2261:	8b 11                	mov    (%ecx),%edx
    2263:	85 d2                	test   %edx,%edx
    2265:	75 d5                	jne    223c <free@plt+0x1a64>
    2267:	8b 85 1c ff ff ff    	mov    -0xe4(%ebp),%eax
    226d:	8b 10                	mov    (%eax),%edx
    226f:	85 d2                	test   %edx,%edx
    2271:	0f 84 90 00 00 00    	je     2307 <free@plt+0x1b2f>
    2277:	8b 40 30             	mov    0x30(%eax),%eax
    227a:	85 c0                	test   %eax,%eax
    227c:	74 03                	je     2281 <free@plt+0x1aa9>
    227e:	01 50 04             	add    %edx,0x4(%eax)
    2281:	8b b5 1c ff ff ff    	mov    -0xe4(%ebp),%esi
    2287:	8b 46 2c             	mov    0x2c(%esi),%eax
    228a:	85 c0                	test   %eax,%eax
    228c:	74 03                	je     2291 <free@plt+0x1ab9>
    228e:	01 50 04             	add    %edx,0x4(%eax)
    2291:	8b bd 1c ff ff ff    	mov    -0xe4(%ebp),%edi
    2297:	8b 47 34             	mov    0x34(%edi),%eax
    229a:	85 c0                	test   %eax,%eax
    229c:	74 03                	je     22a1 <free@plt+0x1ac9>
    229e:	01 50 04             	add    %edx,0x4(%eax)
    22a1:	8b 8d 1c ff ff ff    	mov    -0xe4(%ebp),%ecx
    22a7:	8b 41 38             	mov    0x38(%ecx),%eax
    22aa:	85 c0                	test   %eax,%eax
    22ac:	74 03                	je     22b1 <free@plt+0x1ad9>
    22ae:	01 50 04             	add    %edx,0x4(%eax)
    22b1:	8b b5 1c ff ff ff    	mov    -0xe4(%ebp),%esi
    22b7:	8b 46 3c             	mov    0x3c(%esi),%eax
    22ba:	85 c0                	test   %eax,%eax
    22bc:	74 03                	je     22c1 <free@plt+0x1ae9>
    22be:	01 50 04             	add    %edx,0x4(%eax)
    22c1:	8b bd 1c ff ff ff    	mov    -0xe4(%ebp),%edi
    22c7:	8b 47 64             	mov    0x64(%edi),%eax
    22ca:	85 c0                	test   %eax,%eax
    22cc:	74 03                	je     22d1 <free@plt+0x1af9>
    22ce:	01 50 04             	add    %edx,0x4(%eax)
    22d1:	8b 8d 1c ff ff ff    	mov    -0xe4(%ebp),%ecx
    22d7:	8b 41 7c             	mov    0x7c(%ecx),%eax
    22da:	85 c0                	test   %eax,%eax
    22dc:	74 03                	je     22e1 <free@plt+0x1b09>
    22de:	01 50 04             	add    %edx,0x4(%eax)
    22e1:	8b b5 1c ff ff ff    	mov    -0xe4(%ebp),%esi
    22e7:	8b 86 e4 00 00 00    	mov    0xe4(%esi),%eax
    22ed:	85 c0                	test   %eax,%eax
    22ef:	74 03                	je     22f4 <free@plt+0x1b1c>
    22f1:	01 50 04             	add    %edx,0x4(%eax)
    22f4:	8b bd 1c ff ff ff    	mov    -0xe4(%ebp),%edi
    22fa:	8b 87 4c 01 00 00    	mov    0x14c(%edi),%eax
    2300:	85 c0                	test   %eax,%eax
    2302:	74 03                	je     2307 <free@plt+0x1b2f>
    2304:	01 50 04             	add    %edx,0x4(%eax)
    2307:	8b 95 1c ff ff ff    	mov    -0xe4(%ebp),%edx
    230d:	8b 42 70             	mov    0x70(%edx),%eax
    2310:	85 c0                	test   %eax,%eax
    2312:	74 11                	je     2325 <free@plt+0x1b4d>
    2314:	8b 40 04             	mov    0x4(%eax),%eax
    2317:	83 f8 11             	cmp    $0x11,%eax
    231a:	74 09                	je     2325 <free@plt+0x1b4d>
    231c:	83 f8 07             	cmp    $0x7,%eax
    231f:	0f 85 93 03 00 00    	jne    26b8 <free@plt+0x1ee0>
    2325:	8b 8d 1c ff ff ff    	mov    -0xe4(%ebp),%ecx
    232b:	8b 71 3c             	mov    0x3c(%ecx),%esi
    232e:	85 f6                	test   %esi,%esi
    2330:	74 0d                	je     233f <free@plt+0x1b67>
    2332:	8b 41 44             	mov    0x44(%ecx),%eax
    2335:	83 78 04 0c          	cmpl   $0xc,0x4(%eax)
    2339:	0f 85 27 15 00 00    	jne    3866 <free@plt+0x308e>
    233f:	8b b5 1c ff ff ff    	mov    -0xe4(%ebp),%esi
    2345:	8b 4e 64             	mov    0x64(%esi),%ecx
    2348:	85 c9                	test   %ecx,%ecx
    234a:	74 0d                	je     2359 <free@plt+0x1b81>
    234c:	8b 46 6c             	mov    0x6c(%esi),%eax
    234f:	83 78 04 08          	cmpl   $0x8,0x4(%eax)
    2353:	0f 85 37 15 00 00    	jne    3890 <free@plt+0x30b8>
    2359:	8b bd 1c ff ff ff    	mov    -0xe4(%ebp),%edi
    235f:	8b 97 98 00 00 00    	mov    0x98(%edi),%edx
    2365:	85 d2                	test   %edx,%edx
    2367:	74 2b                	je     2394 <free@plt+0x1bbc>
    2369:	8b 42 04             	mov    0x4(%edx),%eax
    236c:	a8 02                	test   $0x2,%al
    236e:	89 87 04 02 00 00    	mov    %eax,0x204(%edi)
    2374:	74 03                	je     2379 <free@plt+0x1ba1>
    2376:	89 57 60             	mov    %edx,0x60(%edi)
    2379:	8b 8d 1c ff ff ff    	mov    -0xe4(%ebp),%ecx
    237f:	8b 81 04 02 00 00    	mov    0x204(%ecx),%eax
    2385:	a8 04                	test   $0x4,%al
    2387:	74 03                	je     238c <free@plt+0x1bb4>
    2389:	89 51 78             	mov    %edx,0x78(%ecx)
    238c:	a8 08                	test   $0x8,%al
    238e:	0f 85 f6 09 00 00    	jne    2d8a <free@plt+0x25b2>
    2394:	8b bd 1c ff ff ff    	mov    -0xe4(%ebp),%edi
    239a:	8b 97 b8 00 00 00    	mov    0xb8(%edi),%edx
    23a0:	85 d2                	test   %edx,%edx
    23a2:	74 11                	je     23b5 <free@plt+0x1bdd>
    23a4:	8b 42 04             	mov    0x4(%edx),%eax
    23a7:	a8 01                	test   $0x1,%al
    23a9:	89 87 00 02 00 00    	mov    %eax,0x200(%edi)
    23af:	0f 85 ca 09 00 00    	jne    2d7f <free@plt+0x25a7>
    23b5:	8b 85 1c ff ff ff    	mov    -0xe4(%ebp),%eax
    23bb:	8b 90 94 00 00 00    	mov    0x94(%eax),%edx
    23c1:	85 d2                	test   %edx,%edx
    23c3:	74 07                	je     23cc <free@plt+0x1bf4>
    23c5:	c7 40 5c 00 00 00 00 	movl   $0x0,0x5c(%eax)
    23cc:	8b 85 1c ff ff ff    	mov    -0xe4(%ebp),%eax
    23d2:	e8 69 67 00 00       	call   8b40 <_dl_rtld_di_serinfo+0x1860>
    23d7:	83 7d ec 02          	cmpl   $0x2,-0x14(%ebp)
    23db:	0f 84 1e 13 00 00    	je     36ff <free@plt+0x2f27>
    23e1:	8b 83 58 fe ff ff    	mov    -0x1a8(%ebx),%eax
    23e7:	8d 8b b8 02 00 00    	lea    0x2b8(%ebx),%ecx
    23ed:	89 8d 2c ff ff ff    	mov    %ecx,-0xd4(%ebp)
    23f3:	85 c0                	test   %eax,%eax
    23f5:	0f 84 43 06 00 00    	je     2a3e <free@plt+0x2266>
    23fb:	8d 93 4f cf ff ff    	lea    -0x30b1(%ebx),%edx
    2401:	b9 01 00 00 00       	mov    $0x1,%ecx
    2406:	89 d0                	mov    %edx,%eax
    2408:	c7 44 24 08 00 00 00 	movl   $0x0,0x8(%esp)
    240f:	00 
    2410:	8d b3 b8 02 00 00    	lea    0x2b8(%ebx),%esi
    2416:	c7 44 24 04 00 00 00 	movl   $0x0,0x4(%esp)
    241d:	00 
    241e:	c7 04 24 00 00 00 00 	movl   $0x0,(%esp)
    2425:	e8 56 7b 00 00       	call   9f80 <_dl_rtld_di_serinfo+0x2ca0>
    242a:	89 b5 2c ff ff ff    	mov    %esi,-0xd4(%ebp)
    2430:	83 ec 0c             	sub    $0xc,%esp
    2433:	85 c0                	test   %eax,%eax
    2435:	89 c7                	mov    %eax,%edi
    2437:	0f 84 01 06 00 00    	je     2a3e <free@plt+0x2266>
    243d:	8b 83 58 fe ff ff    	mov    -0x1a8(%ebx),%eax
    2443:	89 c2                	mov    %eax,%edx
    2445:	03 50 1c             	add    0x1c(%eax),%edx
    2448:	0f b7 40 2c          	movzwl 0x2c(%eax),%eax
    244c:	89 97 50 01 00 00    	mov    %edx,0x150(%edi)
    2452:	66 85 c0             	test   %ax,%ax
    2455:	66 89 87 58 01 00 00 	mov    %ax,0x158(%edi)
    245c:	74 59                	je     24b7 <free@plt+0x1cdf>
    245e:	31 c9                	xor    %ecx,%ecx
    2460:	eb 22                	jmp    2484 <free@plt+0x1cac>
    2462:	83 f8 01             	cmp    $0x1,%eax
    2465:	0f 84 dd 03 00 00    	je     2848 <free@plt+0x2070>
    246b:	83 f8 07             	cmp    $0x7,%eax
    246e:	66 90                	xchg   %ax,%ax
    2470:	0f 84 f0 14 00 00    	je     3966 <free@plt+0x318e>
    2476:	0f b7 87 58 01 00 00 	movzwl 0x158(%edi),%eax
    247d:	83 c1 01             	add    $0x1,%ecx
    2480:	39 c8                	cmp    %ecx,%eax
    2482:	76 33                	jbe    24b7 <free@plt+0x1cdf>
    2484:	89 ca                	mov    %ecx,%edx
    2486:	c1 e2 05             	shl    $0x5,%edx
    2489:	03 97 50 01 00 00    	add    0x150(%edi),%edx
    248f:	8b 02                	mov    (%edx),%eax
    2491:	83 f8 02             	cmp    $0x2,%eax
    2494:	75 cc                	jne    2462 <free@plt+0x1c8a>
    2496:	8b 42 08             	mov    0x8(%edx),%eax
    2499:	83 c1 01             	add    $0x1,%ecx
    249c:	89 47 08             	mov    %eax,0x8(%edi)
    249f:	8b 42 14             	mov    0x14(%edx),%eax
    24a2:	c1 e8 03             	shr    $0x3,%eax
    24a5:	66 89 87 5a 01 00 00 	mov    %ax,0x15a(%edi)
    24ac:	0f b7 87 58 01 00 00 	movzwl 0x158(%edi),%eax
    24b3:	39 c8                	cmp    %ecx,%eax
    24b5:	77 cd                	ja     2484 <free@plt+0x1cac>
    24b7:	8b 83 58 fe ff ff    	mov    -0x1a8(%ebx),%eax
    24bd:	8b 4f 08             	mov    0x8(%edi),%ecx
    24c0:	89 87 ac 01 00 00    	mov    %eax,0x1ac(%edi)
    24c6:	2b 07                	sub    (%edi),%eax
    24c8:	01 87 b0 01 00 00    	add    %eax,0x1b0(%edi)
    24ce:	01 87 b4 01 00 00    	add    %eax,0x1b4(%edi)
    24d4:	01 c1                	add    %eax,%ecx
    24d6:	85 c9                	test   %ecx,%ecx
    24d8:	89 07                	mov    %eax,(%edi)
    24da:	89 4f 08             	mov    %ecx,0x8(%edi)
    24dd:	0f 84 9a 04 00 00    	je     297d <free@plt+0x21a5>
    24e3:	8b 11                	mov    (%ecx),%edx
    24e5:	85 d2                	test   %edx,%edx
    24e7:	74 39                	je     2522 <free@plt+0x1d4a>
    24e9:	be ff ff ff 6f       	mov    $0x6fffffff,%esi
    24ee:	eb 0d                	jmp    24fd <free@plt+0x1d25>
    24f0:	89 4c 97 20          	mov    %ecx,0x20(%edi,%edx,4)
    24f4:	83 c1 08             	add    $0x8,%ecx
    24f7:	8b 11                	mov    (%ecx),%edx
    24f9:	85 d2                	test   %edx,%edx
    24fb:	74 25                	je     2522 <free@plt+0x1d4a>
    24fd:	83 fa 21             	cmp    $0x21,%edx
    2500:	76 ee                	jbe    24f0 <free@plt+0x1d18>
    2502:	89 f0                	mov    %esi,%eax
    2504:	29 d0                	sub    %edx,%eax
    2506:	83 f8 0f             	cmp    $0xf,%eax
    2509:	0f 87 b4 03 00 00    	ja     28c3 <free@plt+0x20eb>
    250f:	b8 29 00 00 70       	mov    $0x70000029,%eax
    2514:	29 d0                	sub    %edx,%eax
    2516:	89 0c 87             	mov    %ecx,(%edi,%eax,4)
    2519:	83 c1 08             	add    $0x8,%ecx
    251c:	8b 11                	mov    (%ecx),%edx
    251e:	85 d2                	test   %edx,%edx
    2520:	75 db                	jne    24fd <free@plt+0x1d25>
    2522:	8b 07                	mov    (%edi),%eax
    2524:	85 c0                	test   %eax,%eax
    2526:	89 85 78 ff ff ff    	mov    %eax,-0x88(%ebp)
    252c:	0f 84 66 01 00 00    	je     2698 <free@plt+0x1ec0>
    2532:	8b 57 30             	mov    0x30(%edi),%edx
    2535:	31 f6                	xor    %esi,%esi
    2537:	85 d2                	test   %edx,%edx
    2539:	74 25                	je     2560 <free@plt+0x1d88>
    253b:	8b 02                	mov    (%edx),%eax
    253d:	be 01 00 00 00       	mov    $0x1,%esi
    2542:	89 83 ac fe ff ff    	mov    %eax,-0x154(%ebx)
    2548:	8b 85 78 ff ff ff    	mov    -0x88(%ebp),%eax
    254e:	03 42 04             	add    0x4(%edx),%eax
    2551:	89 83 b0 fe ff ff    	mov    %eax,-0x150(%ebx)
    2557:	8d 83 ac fe ff ff    	lea    -0x154(%ebx),%eax
    255d:	89 47 30             	mov    %eax,0x30(%edi)
    2560:	8b 4f 2c             	mov    0x2c(%edi),%ecx
    2563:	85 c9                	test   %ecx,%ecx
    2565:	74 1d                	je     2584 <free@plt+0x1dac>
    2567:	8b 11                	mov    (%ecx),%edx
    2569:	8d 84 f3 ac fe ff ff 	lea    -0x154(%ebx,%esi,8),%eax
    2570:	83 c6 01             	add    $0x1,%esi
    2573:	89 10                	mov    %edx,(%eax)
    2575:	8b 95 78 ff ff ff    	mov    -0x88(%ebp),%edx
    257b:	03 51 04             	add    0x4(%ecx),%edx
    257e:	89 50 04             	mov    %edx,0x4(%eax)
    2581:	89 47 2c             	mov    %eax,0x2c(%edi)
    2584:	8b 4f 34             	mov    0x34(%edi),%ecx
    2587:	85 c9                	test   %ecx,%ecx
    2589:	74 1d                	je     25a8 <free@plt+0x1dd0>
    258b:	8b 11                	mov    (%ecx),%edx
    258d:	8d 84 f3 ac fe ff ff 	lea    -0x154(%ebx,%esi,8),%eax
    2594:	83 c6 01             	add    $0x1,%esi
    2597:	89 10                	mov    %edx,(%eax)
    2599:	8b 95 78 ff ff ff    	mov    -0x88(%ebp),%edx
    259f:	03 51 04             	add    0x4(%ecx),%edx
    25a2:	89 50 04             	mov    %edx,0x4(%eax)
    25a5:	89 47 34             	mov    %eax,0x34(%edi)
    25a8:	8b 4f 38             	mov    0x38(%edi),%ecx
    25ab:	85 c9                	test   %ecx,%ecx
    25ad:	74 1d                	je     25cc <free@plt+0x1df4>
    25af:	8b 11                	mov    (%ecx),%edx
    25b1:	8d 84 f3 ac fe ff ff 	lea    -0x154(%ebx,%esi,8),%eax
    25b8:	83 c6 01             	add    $0x1,%esi
    25bb:	89 10                	mov    %edx,(%eax)
    25bd:	8b 95 78 ff ff ff    	mov    -0x88(%ebp),%edx
    25c3:	03 51 04             	add    0x4(%ecx),%edx
    25c6:	89 50 04             	mov    %edx,0x4(%eax)
    25c9:	89 47 38             	mov    %eax,0x38(%edi)
    25cc:	8b 4f 3c             	mov    0x3c(%edi),%ecx
    25cf:	85 c9                	test   %ecx,%ecx
    25d1:	74 1d                	je     25f0 <free@plt+0x1e18>
    25d3:	8b 11                	mov    (%ecx),%edx
    25d5:	8d 84 f3 ac fe ff ff 	lea    -0x154(%ebx,%esi,8),%eax
    25dc:	83 c6 01             	add    $0x1,%esi
    25df:	89 10                	mov    %edx,(%eax)
    25e1:	8b 95 78 ff ff ff    	mov    -0x88(%ebp),%edx
    25e7:	03 51 04             	add    0x4(%ecx),%edx
    25ea:	89 50 04             	mov    %edx,0x4(%eax)
    25ed:	89 47 3c             	mov    %eax,0x3c(%edi)
    25f0:	8b 4f 64             	mov    0x64(%edi),%ecx
    25f3:	85 c9                	test   %ecx,%ecx
    25f5:	74 1d                	je     2614 <free@plt+0x1e3c>
    25f7:	8b 11                	mov    (%ecx),%edx
    25f9:	8d 84 f3 ac fe ff ff 	lea    -0x154(%ebx,%esi,8),%eax
    2600:	83 c6 01             	add    $0x1,%esi
    2603:	89 10                	mov    %edx,(%eax)
    2605:	8b 95 78 ff ff ff    	mov    -0x88(%ebp),%edx
    260b:	03 51 04             	add    0x4(%ecx),%edx
    260e:	89 50 04             	mov    %edx,0x4(%eax)
    2611:	89 47 64             	mov    %eax,0x64(%edi)
    2614:	8b 4f 7c             	mov    0x7c(%edi),%ecx
    2617:	85 c9                	test   %ecx,%ecx
    2619:	74 1d                	je     2638 <free@plt+0x1e60>
    261b:	8b 11                	mov    (%ecx),%edx
    261d:	8d 84 f3 ac fe ff ff 	lea    -0x154(%ebx,%esi,8),%eax
    2624:	83 c6 01             	add    $0x1,%esi
    2627:	89 10                	mov    %edx,(%eax)
    2629:	8b 95 78 ff ff ff    	mov    -0x88(%ebp),%edx
    262f:	03 51 04             	add    0x4(%ecx),%edx
    2632:	89 50 04             	mov    %edx,0x4(%eax)
    2635:	89 47 7c             	mov    %eax,0x7c(%edi)
    2638:	8b 8f e4 00 00 00    	mov    0xe4(%edi),%ecx
    263e:	85 c9                	test   %ecx,%ecx
    2640:	74 20                	je     2662 <free@plt+0x1e8a>
    2642:	8b 11                	mov    (%ecx),%edx
    2644:	8d 84 f3 ac fe ff ff 	lea    -0x154(%ebx,%esi,8),%eax
    264b:	83 c6 01             	add    $0x1,%esi
    264e:	89 10                	mov    %edx,(%eax)
    2650:	8b 95 78 ff ff ff    	mov    -0x88(%ebp),%edx
    2656:	03 51 04             	add    0x4(%ecx),%edx
    2659:	89 50 04             	mov    %edx,0x4(%eax)
    265c:	89 87 e4 00 00 00    	mov    %eax,0xe4(%edi)
    2662:	8b 8f 4c 01 00 00    	mov    0x14c(%edi),%ecx
    2668:	85 c9                	test   %ecx,%ecx
    266a:	74 2c                	je     2698 <free@plt+0x1ec0>
    266c:	8b 01                	mov    (%ecx),%eax
    266e:	8d 94 f3 ac fe ff ff 	lea    -0x154(%ebx,%esi,8),%edx
    2675:	89 02                	mov    %eax,(%edx)
    2677:	8b 41 04             	mov    0x4(%ecx),%eax
    267a:	01 85 78 ff ff ff    	add    %eax,-0x88(%ebp)
    2680:	83 fe 08             	cmp    $0x8,%esi
    2683:	8b 8d 78 ff ff ff    	mov    -0x88(%ebp),%ecx
    2689:	89 4a 04             	mov    %ecx,0x4(%edx)
    268c:	89 97 4c 01 00 00    	mov    %edx,0x14c(%edi)
    2692:	0f 84 d3 0d 00 00    	je     346b <free@plt+0x2c93>
    2698:	8b 47 70             	mov    0x70(%edi),%eax
    269b:	85 c0                	test   %eax,%eax
    269d:	0f 84 57 02 00 00    	je     28fa <free@plt+0x2122>
    26a3:	8b 40 04             	mov    0x4(%eax),%eax
    26a6:	83 f8 11             	cmp    $0x11,%eax
    26a9:	0f 84 4b 02 00 00    	je     28fa <free@plt+0x2122>
    26af:	83 f8 07             	cmp    $0x7,%eax
    26b2:	0f 84 42 02 00 00    	je     28fa <free@plt+0x2122>
    26b8:	8d 83 6c d0 ff ff    	lea    -0x2f94(%ebx),%eax
    26be:	89 44 24 0c          	mov    %eax,0xc(%esp)
    26c2:	8d 83 40 cc ff ff    	lea    -0x33c0(%ebx),%eax
    26c8:	89 44 24 04          	mov    %eax,0x4(%esp)
    26cc:	8d 83 18 b9 ff ff    	lea    -0x46e8(%ebx),%eax
    26d2:	c7 44 24 08 be 00 00 	movl   $0xbe,0x8(%esp)
    26d9:	00 
    26da:	89 04 24             	mov    %eax,(%esp)
    26dd:	e8 7e 23 01 00       	call   14a60 <_dl_make_stack_executable+0x3220>
    26e2:	8d b6 00 00 00 00    	lea    0x0(%esi),%esi
    26e8:	8b 42 08             	mov    0x8(%edx),%eax
    26eb:	8b 8d 1c ff ff ff    	mov    -0xe4(%ebp),%ecx
    26f1:	89 81 44 02 00 00    	mov    %eax,0x244(%ecx)
    26f7:	8b 42 14             	mov    0x14(%edx),%eax
    26fa:	89 81 48 02 00 00    	mov    %eax,0x248(%ecx)
    2700:	e9 a1 f9 ff ff       	jmp    20a6 <free@plt+0x18ce>
    2705:	8b 42 18             	mov    0x18(%edx),%eax
    2708:	89 83 8c 05 00 00    	mov    %eax,0x58c(%ebx)
    270e:	e9 93 f9 ff ff       	jmp    20a6 <free@plt+0x18ce>
    2713:	8b 45 08             	mov    0x8(%ebp),%eax
    2716:	8b 8d 1c ff ff ff    	mov    -0xe4(%ebp),%ecx
    271c:	2b 42 08             	sub    0x8(%edx),%eax
    271f:	89 01                	mov    %eax,(%ecx)
    2721:	e9 80 f9 ff ff       	jmp    20a6 <free@plt+0x18ce>
    2726:	8b 8d 1c ff ff ff    	mov    -0xe4(%ebp),%ecx
    272c:	8b 83 dc fc ff ff    	mov    -0x324(%ebx),%eax
    2732:	f7 d8                	neg    %eax
    2734:	23 42 08             	and    0x8(%edx),%eax
    2737:	03 01                	add    (%ecx),%eax
    2739:	3b 81 ac 01 00 00    	cmp    0x1ac(%ecx),%eax
    273f:	73 06                	jae    2747 <free@plt+0x1f6f>
    2741:	89 81 ac 01 00 00    	mov    %eax,0x1ac(%ecx)
    2747:	8b b5 1c ff ff ff    	mov    -0xe4(%ebp),%esi
    274d:	8b 42 08             	mov    0x8(%edx),%eax
    2750:	03 06                	add    (%esi),%eax
    2752:	03 42 14             	add    0x14(%edx),%eax
    2755:	3b 86 b0 01 00 00    	cmp    0x1b0(%esi),%eax
    275b:	76 06                	jbe    2763 <free@plt+0x1f8b>
    275d:	89 86 b0 01 00 00    	mov    %eax,0x1b0(%esi)
    2763:	f6 42 18 01          	testb  $0x1,0x18(%edx)
    2767:	0f 84 39 f9 ff ff    	je     20a6 <free@plt+0x18ce>
    276d:	8b 8d 1c ff ff ff    	mov    -0xe4(%ebp),%ecx
    2773:	3b 81 b4 01 00 00    	cmp    0x1b4(%ecx),%eax
    2779:	0f 86 27 f9 ff ff    	jbe    20a6 <free@plt+0x18ce>
    277f:	89 81 b4 01 00 00    	mov    %eax,0x1b4(%ecx)
    2785:	e9 1c f9 ff ff       	jmp    20a6 <free@plt+0x18ce>
    278a:	8b 8d 1c ff ff ff    	mov    -0xe4(%ebp),%ecx
    2790:	8b b5 78 fe ff ff    	mov    -0x188(%ebp),%esi
    2796:	c7 85 6c fe ff ff 00 	movl   $0x0,-0x194(%ebp)
    279d:	00 00 00 
    27a0:	8b 01                	mov    (%ecx),%eax
    27a2:	8b 8b b4 02 00 00    	mov    0x2b4(%ebx),%ecx
    27a8:	03 42 08             	add    0x8(%edx),%eax
    27ab:	89 b3 c8 02 00 00    	mov    %esi,0x2c8(%ebx)
    27b1:	85 c9                	test   %ecx,%ecx
    27b3:	89 83 d8 05 00 00    	mov    %eax,0x5d8(%ebx)
    27b9:	74 12                	je     27cd <free@plt+0x1ff5>
    27bb:	c6 85 25 ff ff ff 01 	movb   $0x1,-0xdb(%ebp)
    27c2:	e9 df f8 ff ff       	jmp    20a6 <free@plt+0x18ce>
    27c7:	89 85 6c fe ff ff    	mov    %eax,-0x194(%ebp)
    27cd:	0f b6 30             	movzbl (%eax),%esi
    27d0:	89 f1                	mov    %esi,%ecx
    27d2:	84 c9                	test   %cl,%cl
    27d4:	74 13                	je     27e9 <free@plt+0x2011>
    27d6:	89 f1                	mov    %esi,%ecx
    27d8:	83 c0 01             	add    $0x1,%eax
    27db:	80 f9 2f             	cmp    $0x2f,%cl
    27de:	74 e7                	je     27c7 <free@plt+0x1fef>
    27e0:	0f b6 30             	movzbl (%eax),%esi
    27e3:	89 f1                	mov    %esi,%ecx
    27e5:	84 c9                	test   %cl,%cl
    27e7:	75 ed                	jne    27d6 <free@plt+0x1ffe>
    27e9:	8b b5 6c fe ff ff    	mov    -0x194(%ebp),%esi
    27ef:	85 f6                	test   %esi,%esi
    27f1:	74 c8                	je     27bb <free@plt+0x1fe3>
    27f3:	8b b5 6c fe ff ff    	mov    -0x194(%ebp),%esi
    27f9:	8b 85 74 fe ff ff    	mov    -0x18c(%ebp),%eax
    27ff:	c6 85 25 ff ff ff 01 	movb   $0x1,-0xdb(%ebp)
    2806:	89 b3 e4 05 00 00    	mov    %esi,0x5e4(%ebx)
    280c:	89 83 dc 05 00 00    	mov    %eax,0x5dc(%ebx)
    2812:	e9 8f f8 ff ff       	jmp    20a6 <free@plt+0x18ce>
    2817:	8b b5 1c ff ff ff    	mov    -0xe4(%ebp),%esi
    281d:	8b 06                	mov    (%esi),%eax
    281f:	03 42 08             	add    0x8(%edx),%eax
    2822:	89 46 08             	mov    %eax,0x8(%esi)
    2825:	e9 7c f8 ff ff       	jmp    20a6 <free@plt+0x18ce>
    282a:	8d 04 12             	lea    (%edx,%edx,1),%eax
    282d:	d1 f8                	sar    %eax
    282f:	83 f8 fc             	cmp    $0xfffffffc,%eax
    2832:	76 5a                	jbe    288e <free@plt+0x20b6>
    2834:	8b bd 1c ff ff ff    	mov    -0xe4(%ebp),%edi
    283a:	f7 d0                	not    %eax
    283c:	89 8c 87 e8 00 00 00 	mov    %ecx,0xe8(%edi,%eax,4)
    2843:	e9 eb f9 ff ff       	jmp    2233 <free@plt+0x1a5b>
    2848:	8b 07                	mov    (%edi),%eax
    284a:	85 c0                	test   %eax,%eax
    284c:	75 05                	jne    2853 <free@plt+0x207b>
    284e:	8b 42 08             	mov    0x8(%edx),%eax
    2851:	89 07                	mov    %eax,(%edi)
    2853:	8b 42 14             	mov    0x14(%edx),%eax
    2856:	03 42 08             	add    0x8(%edx),%eax
    2859:	3b 87 b0 01 00 00    	cmp    0x1b0(%edi),%eax
    285f:	72 06                	jb     2867 <free@plt+0x208f>
    2861:	89 87 b0 01 00 00    	mov    %eax,0x1b0(%edi)
    2867:	f6 42 18 01          	testb  $0x1,0x18(%edx)
    286b:	0f 84 05 fc ff ff    	je     2476 <free@plt+0x1c9e>
    2871:	8b 42 14             	mov    0x14(%edx),%eax
    2874:	03 42 08             	add    0x8(%edx),%eax
    2877:	3b 87 b4 01 00 00    	cmp    0x1b4(%edi),%eax
    287d:	0f 82 f3 fb ff ff    	jb     2476 <free@plt+0x1c9e>
    2883:	89 87 b4 01 00 00    	mov    %eax,0x1b4(%edi)
    2889:	e9 e8 fb ff ff       	jmp    2476 <free@plt+0x1c9e>
    288e:	b8 ff fd ff 6f       	mov    $0x6ffffdff,%eax
    2893:	29 d0                	sub    %edx,%eax
    2895:	83 f8 0b             	cmp    $0xb,%eax
    2898:	0f 86 58 04 00 00    	jbe    2cf6 <free@plt+0x251e>
    289e:	b8 ff fe ff 6f       	mov    $0x6ffffeff,%eax
    28a3:	29 d0                	sub    %edx,%eax
    28a5:	83 f8 0a             	cmp    $0xa,%eax
    28a8:	0f 87 85 f9 ff ff    	ja     2233 <free@plt+0x1a5b>
    28ae:	8b bd 1c ff ff ff    	mov    -0xe4(%ebp),%edi
    28b4:	b8 48 ff ff 6f       	mov    $0x6fffff48,%eax
    28b9:	29 d0                	sub    %edx,%eax
    28bb:	89 0c 87             	mov    %ecx,(%edi,%eax,4)
    28be:	e9 70 f9 ff ff       	jmp    2233 <free@plt+0x1a5b>
    28c3:	8d 04 12             	lea    (%edx,%edx,1),%eax
    28c6:	d1 f8                	sar    %eax
    28c8:	83 f8 fc             	cmp    $0xfffffffc,%eax
    28cb:	76 0e                	jbe    28db <free@plt+0x2103>
    28cd:	f7 d0                	not    %eax
    28cf:	89 8c 87 e8 00 00 00 	mov    %ecx,0xe8(%edi,%eax,4)
    28d6:	e9 19 fc ff ff       	jmp    24f4 <free@plt+0x1d1c>
    28db:	b8 ff fd ff 6f       	mov    $0x6ffffdff,%eax
    28e0:	29 d0                	sub    %edx,%eax
    28e2:	83 f8 0b             	cmp    $0xb,%eax
    28e5:	0f 87 eb 04 00 00    	ja     2dd6 <free@plt+0x25fe>
    28eb:	b8 3c fe ff 6f       	mov    $0x6ffffe3c,%eax
    28f0:	29 d0                	sub    %edx,%eax
    28f2:	89 0c 87             	mov    %ecx,(%edi,%eax,4)
    28f5:	e9 fa fb ff ff       	jmp    24f4 <free@plt+0x1d1c>
    28fa:	8b 77 3c             	mov    0x3c(%edi),%esi
    28fd:	85 f6                	test   %esi,%esi
    28ff:	74 0d                	je     290e <free@plt+0x2136>
    2901:	8b 47 44             	mov    0x44(%edi),%eax
    2904:	83 78 04 0c          	cmpl   $0xc,0x4(%eax)
    2908:	0f 85 58 0f 00 00    	jne    3866 <free@plt+0x308e>
    290e:	8b 4f 64             	mov    0x64(%edi),%ecx
    2911:	85 c9                	test   %ecx,%ecx
    2913:	74 0d                	je     2922 <free@plt+0x214a>
    2915:	8b 47 6c             	mov    0x6c(%edi),%eax
    2918:	83 78 04 08          	cmpl   $0x8,0x4(%eax)
    291c:	0f 85 6e 0f 00 00    	jne    3890 <free@plt+0x30b8>
    2922:	8b 97 98 00 00 00    	mov    0x98(%edi),%edx
    2928:	85 d2                	test   %edx,%edx
    292a:	74 25                	je     2951 <free@plt+0x2179>
    292c:	8b 42 04             	mov    0x4(%edx),%eax
    292f:	a8 02                	test   $0x2,%al
    2931:	89 87 04 02 00 00    	mov    %eax,0x204(%edi)
    2937:	74 03                	je     293c <free@plt+0x2164>
    2939:	89 57 60             	mov    %edx,0x60(%edi)
    293c:	8b 87 04 02 00 00    	mov    0x204(%edi),%eax
    2942:	a8 04                	test   $0x4,%al
    2944:	74 03                	je     2949 <free@plt+0x2171>
    2946:	89 57 78             	mov    %edx,0x78(%edi)
    2949:	a8 08                	test   $0x8,%al
    294b:	0f 85 9a 03 00 00    	jne    2ceb <free@plt+0x2513>
    2951:	8b 97 b8 00 00 00    	mov    0xb8(%edi),%edx
    2957:	85 d2                	test   %edx,%edx
    2959:	74 11                	je     296c <free@plt+0x2194>
    295b:	8b 42 04             	mov    0x4(%edx),%eax
    295e:	a8 01                	test   $0x1,%al
    2960:	89 87 00 02 00 00    	mov    %eax,0x200(%edi)
    2966:	0f 85 74 03 00 00    	jne    2ce0 <free@plt+0x2508>
    296c:	8b 97 94 00 00 00    	mov    0x94(%edi),%edx
    2972:	85 d2                	test   %edx,%edx
    2974:	74 07                	je     297d <free@plt+0x21a5>
    2976:	c7 47 5c 00 00 00 00 	movl   $0x0,0x5c(%edi)
    297d:	89 f8                	mov    %edi,%eax
    297f:	e8 bc 61 00 00       	call   8b40 <_dl_rtld_di_serinfo+0x1860>
    2984:	8b 97 d0 01 00 00    	mov    0x1d0(%edi),%edx
    298a:	8d 47 14             	lea    0x14(%edi),%eax
    298d:	80 8f 94 01 00 00 04 	orb    $0x4,0x194(%edi)
    2994:	c7 42 04 01 00 00 00 	movl   $0x1,0x4(%edx)
    299b:	89 02                	mov    %eax,(%edx)
    299d:	8b 57 58             	mov    0x58(%edi),%edx
    29a0:	85 d2                	test   %edx,%edx
    29a2:	74 50                	je     29f4 <free@plt+0x221c>
    29a4:	8b 47 34             	mov    0x34(%edi),%eax
    29a7:	8b 72 04             	mov    0x4(%edx),%esi
    29aa:	8b 40 04             	mov    0x4(%eax),%eax
    29ad:	01 f0                	add    %esi,%eax
    29af:	89 85 40 ff ff ff    	mov    %eax,-0xc0(%ebp)
    29b5:	89 04 24             	mov    %eax,(%esp)
    29b8:	e8 63 40 01 00       	call   16a20 <calloc+0x1870>
    29bd:	89 85 0c ff ff ff    	mov    %eax,-0xf4(%ebp)
    29c3:	89 04 24             	mov    %eax,(%esp)
    29c6:	e8 cd dd ff ff       	call   798 <malloc@plt>
    29cb:	85 c0                	test   %eax,%eax
    29cd:	0f 84 de 03 00 00    	je     2db1 <free@plt+0x25d9>
    29d3:	8b 95 0c ff ff ff    	mov    -0xf4(%ebp),%edx
    29d9:	8b 8d 40 ff ff ff    	mov    -0xc0(%ebp),%ecx
    29df:	8b 77 1c             	mov    0x1c(%edi),%esi
    29e2:	89 04 24             	mov    %eax,(%esp)
    29e5:	89 54 24 08          	mov    %edx,0x8(%esp)
    29e9:	89 4c 24 04          	mov    %ecx,0x4(%esp)
    29ed:	e8 de 44 01 00       	call   16ed0 <calloc+0x1d20>
    29f2:	89 06                	mov    %eax,(%esi)
    29f4:	8b 47 0c             	mov    0xc(%edi),%eax
    29f7:	85 c0                	test   %eax,%eax
    29f9:	0f 85 bb 0f 00 00    	jne    39ba <free@plt+0x31e2>
    29ff:	8b b5 1c ff ff ff    	mov    -0xe4(%ebp),%esi
    2a05:	39 77 10             	cmp    %esi,0x10(%edi)
    2a08:	0f 85 ac 0e 00 00    	jne    38ba <free@plt+0x30e2>
    2a0e:	8d 83 ac 02 00 00    	lea    0x2ac(%ebx),%eax
    2a14:	89 47 10             	mov    %eax,0x10(%edi)
    2a17:	8d 47 0c             	lea    0xc(%edi),%eax
    2a1a:	89 85 2c ff ff ff    	mov    %eax,-0xd4(%ebp)
    2a20:	8d 83 fc 37 fe ff    	lea    -0x1c804(%ebx),%eax
    2a26:	39 83 54 fe ff ff    	cmp    %eax,-0x1ac(%ebx)
    2a2c:	89 bb b8 02 00 00    	mov    %edi,0x2b8(%ebx)
    2a32:	89 bb 5c fe ff ff    	mov    %edi,-0x1a4(%ebx)
    2a38:	0f 84 5d 03 00 00    	je     2d9b <free@plt+0x25c3>
    2a3e:	e8 5d 10 01 00       	call   13aa0 <_dl_make_stack_executable+0x2260>
    2a43:	85 c0                	test   %eax,%eax
    2a45:	0f 88 f9 0e 00 00    	js     3944 <free@plt+0x316c>
    2a4b:	8b 93 d0 fc ff ff    	mov    -0x330(%ebx),%edx
    2a51:	85 d2                	test   %edx,%edx
    2a53:	0f 85 44 0d 00 00    	jne    379d <free@plt+0x2fc5>
    2a59:	89 83 d0 fc ff ff    	mov    %eax,-0x330(%ebx)
    2a5f:	3d 0e 06 02 00       	cmp    $0x2060e,%eax
    2a64:	0f 8e ba 14 00 00    	jle    3f24 <free@plt+0x374c>
    2a6a:	8b 83 ec fe ff ff    	mov    -0x114(%ebx),%eax
    2a70:	e8 4b 54 00 00       	call   7ec0 <_dl_rtld_di_serinfo+0xbe0>
    2a75:	8b 83 ac 02 00 00    	mov    0x2ac(%ebx),%eax
    2a7b:	31 d2                	xor    %edx,%edx
    2a7d:	e8 fe c1 00 00       	call   ec80 <_dl_rtld_di_serinfo+0x79a0>
    2a82:	89 85 30 ff ff ff    	mov    %eax,-0xd0(%ebp)
    2a88:	c7 40 0c 00 00 00 00 	movl   $0x0,0xc(%eax)
    2a8f:	8b 83 b0 02 00 00    	mov    0x2b0(%ebx),%eax
    2a95:	85 c0                	test   %eax,%eax
    2a97:	0f 84 91 09 00 00    	je     342e <free@plt+0x2c56>
    2a9d:	0f b6 83 40 04 00 00 	movzbl 0x440(%ebx),%eax
    2aa4:	8d 93 ac 02 00 00    	lea    0x2ac(%ebx),%edx
    2aaa:	83 83 30 00 00 00 01 	addl   $0x1,0x30(%ebx)
    2ab1:	83 e0 fc             	and    $0xfffffffc,%eax
    2ab4:	83 c8 01             	or     $0x1,%eax
    2ab7:	88 83 40 04 00 00    	mov    %al,0x440(%ebx)
    2abd:	8b 8d 1c ff ff ff    	mov    -0xe4(%ebp),%ecx
    2ac3:	83 83 84 02 00 00 01 	addl   $0x1,0x284(%ebx)
    2aca:	83 93 88 02 00 00 00 	adcl   $0x0,0x288(%ebx)
    2ad1:	83 bb 34 fe ff ff fe 	cmpl   $0xfffffffe,-0x1cc(%ebx)
    2ad8:	89 95 d4 fe ff ff    	mov    %edx,-0x12c(%ebp)
    2ade:	89 51 0c             	mov    %edx,0xc(%ecx)
    2ae1:	89 8b bc 02 00 00    	mov    %ecx,0x2bc(%ebx)
    2ae7:	0f 84 31 09 00 00    	je     341e <free@plt+0x2c46>
    2aed:	8b 83 58 04 00 00    	mov    0x458(%ebx),%eax
    2af3:	0f b7 50 2c          	movzwl 0x2c(%eax),%edx
    2af7:	89 c1                	mov    %eax,%ecx
    2af9:	03 48 1c             	add    0x1c(%eax),%ecx
    2afc:	66 89 93 04 04 00 00 	mov    %dx,0x404(%ebx)
    2b03:	0f b7 70 2c          	movzwl 0x2c(%eax),%esi
    2b07:	89 8b fc 03 00 00    	mov    %ecx,0x3fc(%ebx)
    2b0d:	89 f0                	mov    %esi,%eax
    2b0f:	c1 e0 05             	shl    $0x5,%eax
    2b12:	8d 54 08 e0          	lea    -0x20(%eax,%ecx,1),%edx
    2b16:	85 f6                	test   %esi,%esi
    2b18:	74 23                	je     2b3d <free@plt+0x2365>
    2b1a:	8b 02                	mov    (%edx),%eax
    2b1c:	83 ee 01             	sub    $0x1,%esi
    2b1f:	89 d1                	mov    %edx,%ecx
    2b21:	83 ea 20             	sub    $0x20,%edx
    2b24:	3d 52 e5 74 64       	cmp    $0x6474e552,%eax
    2b29:	75 eb                	jne    2b16 <free@plt+0x233e>
    2b2b:	8b 41 08             	mov    0x8(%ecx),%eax
    2b2e:	89 83 f0 04 00 00    	mov    %eax,0x4f0(%ebx)
    2b34:	8b 41 14             	mov    0x14(%ecx),%eax
    2b37:	89 83 f4 04 00 00    	mov    %eax,0x4f4(%ebx)
    2b3d:	8b 83 dc 04 00 00    	mov    0x4dc(%ebx),%eax
    2b43:	85 c0                	test   %eax,%eax
    2b45:	0f 85 c3 08 00 00    	jne    340e <free@plt+0x2c36>
    2b4b:	8b 83 d4 05 00 00    	mov    0x5d4(%ebx),%eax
    2b51:	c7 85 28 ff ff ff 00 	movl   $0x0,-0xd8(%ebp)
    2b58:	00 00 00 
    2b5b:	85 c0                	test   %eax,%eax
    2b5d:	0f 85 81 0e 00 00    	jne    39e4 <free@plt+0x320c>
    2b63:	8b b5 1c ff ff ff    	mov    -0xe4(%ebp),%esi
    2b69:	8b 46 74             	mov    0x74(%esi),%eax
    2b6c:	85 c0                	test   %eax,%eax
    2b6e:	74 09                	je     2b79 <free@plt+0x23a1>
    2b70:	8b bd 30 ff ff ff    	mov    -0xd0(%ebp),%edi
    2b76:	89 78 04             	mov    %edi,0x4(%eax)
    2b79:	8b 83 20 03 00 00    	mov    0x320(%ebx),%eax
    2b7f:	85 c0                	test   %eax,%eax
    2b81:	74 09                	je     2b8c <free@plt+0x23b4>
    2b83:	8b 95 30 ff ff ff    	mov    -0xd0(%ebp),%edx
    2b89:	89 50 04             	mov    %edx,0x4(%eax)
    2b8c:	8b 8d 30 ff ff ff    	mov    -0xd0(%ebp),%ecx
    2b92:	c7 41 0c 01 00 00 00 	movl   $0x1,0xc(%ecx)
    2b99:	e8 72 c1 00 00       	call   ed10 <_dl_debug_state>
    2b9e:	8b 83 8c fe ff ff    	mov    -0x174(%ebx),%eax
    2ba4:	85 c0                	test   %eax,%eax
    2ba6:	0f 85 7f 0c 00 00    	jne    382b <free@plt+0x3053>
    2bac:	8b b5 2c ff ff ff    	mov    -0xd4(%ebp),%esi
    2bb2:	8b 06                	mov    (%esi),%eax
    2bb4:	85 c0                	test   %eax,%eax
    2bb6:	0f 85 d9 08 00 00    	jne    3495 <free@plt+0x2cbd>
    2bbc:	8b b3 f0 fe ff ff    	mov    -0x110(%ebx),%esi
    2bc2:	c7 85 34 ff ff ff 00 	movl   $0x0,-0xcc(%ebp)
    2bc9:	00 00 00 
    2bcc:	85 f6                	test   %esi,%esi
    2bce:	0f 85 eb 08 00 00    	jne    34bf <free@plt+0x2ce7>
    2bd4:	8d b3 ad d0 ff ff    	lea    -0x2f53(%ebx),%esi
    2bda:	c7 44 24 04 04 00 00 	movl   $0x4,0x4(%esp)
    2be1:	00 
    2be2:	89 b5 e4 fe ff ff    	mov    %esi,-0x11c(%ebp)
    2be8:	89 34 24             	mov    %esi,(%esp)
    2beb:	e8 10 38 01 00       	call   16400 <calloc+0x1250>
    2bf0:	85 c0                	test   %eax,%eax
    2bf2:	0f 84 62 09 00 00    	je     355a <free@plt+0x2d82>
    2bf8:	8b bd 2c ff ff ff    	mov    -0xd4(%ebp),%edi
    2bfe:	31 d2                	xor    %edx,%edx
    2c00:	8b 37                	mov    (%edi),%esi
    2c02:	85 f6                	test   %esi,%esi
    2c04:	0f 85 98 0a 00 00    	jne    36a2 <free@plt+0x2eca>
    2c0a:	31 c0                	xor    %eax,%eax
    2c0c:	8b 8d 34 ff ff ff    	mov    -0xcc(%ebp),%ecx
    2c12:	83 7d ec 03          	cmpl   $0x3,-0x14(%ebp)
    2c16:	c7 44 24 04 00 00 00 	movl   $0x0,0x4(%esp)
    2c1d:	00 
    2c1e:	0f 94 c0             	sete   %al
    2c21:	89 04 24             	mov    %eax,(%esp)
    2c24:	8b 85 1c ff ff ff    	mov    -0xe4(%ebp),%eax
    2c2a:	e8 11 9a 00 00       	call   c640 <_dl_rtld_di_serinfo+0x5360>
    2c2f:	8b b5 1c ff ff ff    	mov    -0xe4(%ebp),%esi
    2c35:	8b 8e 60 01 00 00    	mov    0x160(%esi),%ecx
    2c3b:	83 ec 08             	sub    $0x8,%esp
    2c3e:	85 c9                	test   %ecx,%ecx
    2c40:	89 ca                	mov    %ecx,%edx
    2c42:	74 2b                	je     2c6f <free@plt+0x2497>
    2c44:	8d 14 8d fc ff ff ff 	lea    -0x4(,%ecx,4),%edx
    2c4b:	8b bd 1c ff ff ff    	mov    -0xe4(%ebp),%edi
    2c51:	8b 87 5c 01 00 00    	mov    0x15c(%edi),%eax
    2c57:	8b 04 10             	mov    (%eax,%edx,1),%eax
    2c5a:	83 ea 04             	sub    $0x4,%edx
    2c5d:	80 88 94 01 00 00 10 	orb    $0x10,0x194(%eax)
    2c64:	83 e9 01             	sub    $0x1,%ecx
    2c67:	75 e2                	jne    2c4b <free@plt+0x2473>
    2c69:	8b 97 60 01 00 00    	mov    0x160(%edi),%edx
    2c6f:	8b 83 b8 02 00 00    	mov    0x2b8(%ebx),%eax
    2c75:	8b 8b bc 02 00 00    	mov    0x2bc(%ebx),%ecx
    2c7b:	89 41 0c             	mov    %eax,0xc(%ecx)
    2c7e:	8b 83 b8 02 00 00    	mov    0x2b8(%ebx),%eax
    2c84:	85 c0                	test   %eax,%eax
    2c86:	74 03                	je     2c8b <free@plt+0x24b3>
    2c88:	89 48 10             	mov    %ecx,0x10(%eax)
    2c8b:	83 fa 01             	cmp    $0x1,%edx
    2c8e:	76 3e                	jbe    2cce <free@plt+0x24f6>
    2c90:	8b 85 1c ff ff ff    	mov    -0xe4(%ebp),%eax
    2c96:	8b b5 d4 fe ff ff    	mov    -0x12c(%ebp),%esi
    2c9c:	8b 88 5c 01 00 00    	mov    0x15c(%eax),%ecx
    2ca2:	b8 01 00 00 00       	mov    $0x1,%eax
    2ca7:	39 71 04             	cmp    %esi,0x4(%ecx)
    2caa:	75 1b                	jne    2cc7 <free@plt+0x24ef>
    2cac:	e9 33 0c 00 00       	jmp    38e4 <free@plt+0x310c>
    2cb1:	8d b4 26 00 00 00 00 	lea    0x0(%esi,%eiz,1),%esi
    2cb8:	8b bd d4 fe ff ff    	mov    -0x12c(%ebp),%edi
    2cbe:	39 3c 81             	cmp    %edi,(%ecx,%eax,4)
    2cc1:	0f 84 01 02 00 00    	je     2ec8 <free@plt+0x26f0>
    2cc7:	83 c0 01             	add    $0x1,%eax
    2cca:	39 c2                	cmp    %eax,%edx
    2ccc:	77 ea                	ja     2cb8 <free@plt+0x24e0>
    2cce:	c6 85 3a ff ff ff 00 	movb   $0x0,-0xc6(%ebp)
    2cd5:	e9 8d 02 00 00       	jmp    2f67 <free@plt+0x278f>
    2cda:	8d b6 00 00 00 00    	lea    0x0(%esi),%esi
    2ce0:	89 97 80 00 00 00    	mov    %edx,0x80(%edi)
    2ce6:	e9 81 fc ff ff       	jmp    296c <free@plt+0x2194>
    2ceb:	89 97 80 00 00 00    	mov    %edx,0x80(%edi)
    2cf1:	e9 5b fc ff ff       	jmp    2951 <free@plt+0x2179>
    2cf6:	b8 3c fe ff 6f       	mov    $0x6ffffe3c,%eax
    2cfb:	29 d0                	sub    %edx,%eax
    2cfd:	8b 95 1c ff ff ff    	mov    -0xe4(%ebp),%edx
    2d03:	89 0c 82             	mov    %ecx,(%edx,%eax,4)
    2d06:	e9 28 f5 ff ff       	jmp    2233 <free@plt+0x1a5b>
    2d0b:	8b 93 c8 02 00 00    	mov    0x2c8(%ebx),%edx
    2d11:	03 77 04             	add    0x4(%edi),%esi
    2d14:	c7 83 c8 05 00 00 00 	movl   $0x0,0x5c8(%ebx)
    2d1b:	00 00 00 
    2d1e:	c7 83 cc 05 00 00 01 	movl   $0x1,0x5cc(%ebx)
    2d25:	00 00 00 
    2d28:	8b 7a 04             	mov    0x4(%edx),%edi
    2d2b:	89 b3 c4 05 00 00    	mov    %esi,0x5c4(%ebx)
    2d31:	85 ff                	test   %edi,%edi
    2d33:	0f 85 08 07 00 00    	jne    3441 <free@plt+0x2c69>
    2d39:	8d 83 c4 05 00 00    	lea    0x5c4(%ebx),%eax
    2d3f:	89 42 04             	mov    %eax,0x4(%edx)
    2d42:	e9 aa f4 ff ff       	jmp    21f1 <free@plt+0x1a19>
    2d47:	c7 86 38 02 00 00 00 	movl   $0x0,0x238(%esi)
    2d4e:	00 00 00 
    2d51:	e9 d6 f3 ff ff       	jmp    212c <free@plt+0x1954>
    2d56:	8b 95 70 fe ff ff    	mov    -0x190(%ebp),%edx
    2d5c:	83 83 00 ff ff ff 02 	addl   $0x2,-0x100(%ebx)
    2d63:	83 ab fc fe ff ff 02 	subl   $0x2,-0x104(%ebx)
    2d6a:	83 83 ac fc ff ff 08 	addl   $0x8,-0x354(%ebx)
    2d71:	8b 42 08             	mov    0x8(%edx),%eax
    2d74:	89 83 2c fe ff ff    	mov    %eax,-0x1d4(%ebx)
    2d7a:	e9 b9 f0 ff ff       	jmp    1e38 <free@plt+0x1660>
    2d7f:	89 97 80 00 00 00    	mov    %edx,0x80(%edi)
    2d85:	e9 2b f6 ff ff       	jmp    23b5 <free@plt+0x1bdd>
    2d8a:	8b b5 1c ff ff ff    	mov    -0xe4(%ebp),%esi
    2d90:	89 96 80 00 00 00    	mov    %edx,0x80(%esi)
    2d96:	e9 f9 f5 ff ff       	jmp    2394 <free@plt+0x1bbc>
    2d9b:	8b 93 58 fe ff ff    	mov    -0x1a8(%ebx),%edx
    2da1:	8b 07                	mov    (%edi),%eax
    2da3:	03 42 18             	add    0x18(%edx),%eax
    2da6:	89 83 54 fe ff ff    	mov    %eax,-0x1ac(%ebx)
    2dac:	e9 8d fc ff ff       	jmp    2a3e <free@plt+0x2266>
    2db1:	8d b3 b6 ce ff ff    	lea    -0x314a(%ebx),%esi
    2db7:	90                   	nop    
    2db8:	89 74 24 04          	mov    %esi,0x4(%esp)
    2dbc:	c7 04 24 02 00 00 00 	movl   $0x2,(%esp)
    2dc3:	e8 28 c5 00 00       	call   f2f0 <_dl_debug_state+0x5e0>
    2dc8:	c7 04 24 7f 00 00 00 	movl   $0x7f,(%esp)
    2dcf:	e8 70 38 01 00       	call   16644 <calloc+0x1494>
    2dd4:	eb e2                	jmp    2db8 <free@plt+0x25e0>
    2dd6:	b8 ff fe ff 6f       	mov    $0x6ffffeff,%eax
    2ddb:	29 d0                	sub    %edx,%eax
    2ddd:	83 f8 0a             	cmp    $0xa,%eax
    2de0:	0f 87 0e f7 ff ff    	ja     24f4 <free@plt+0x1d1c>
    2de6:	b8 48 ff ff 6f       	mov    $0x6fffff48,%eax
    2deb:	29 d0                	sub    %edx,%eax
    2ded:	89 0c 87             	mov    %ecx,(%edi,%eax,4)
    2df0:	e9 ff f6 ff ff       	jmp    24f4 <free@plt+0x1d1c>
    2df5:	c1 65 0c 05          	shll   $0x5,0xc(%ebp)
    2df9:	8b 55 08             	mov    0x8(%ebp),%edx
    2dfc:	83 83 00 ff ff ff 01 	addl   $0x1,-0x100(%ebx)
    2e03:	83 ab fc fe ff ff 01 	subl   $0x1,-0x104(%ebx)
    2e0a:	83 83 ac fc ff ff 04 	addl   $0x4,-0x354(%ebx)
    2e11:	03 55 0c             	add    0xc(%ebp),%edx
    2e14:	39 55 08             	cmp    %edx,0x8(%ebp)
    2e17:	73 31                	jae    2e4a <free@plt+0x2672>
    2e19:	8b 45 08             	mov    0x8(%ebp),%eax
    2e1c:	81 38 51 e5 74 64    	cmpl   $0x6474e551,(%eax)
    2e22:	75 1a                	jne    2e3e <free@plt+0x2666>
    2e24:	e9 d7 05 00 00       	jmp    3400 <free@plt+0x2c28>
    2e29:	8d b4 26 00 00 00 00 	lea    0x0(%esi,%eiz,1),%esi
    2e30:	81 38 51 e5 74 64    	cmpl   $0x6474e551,(%eax)
    2e36:	66 90                	xchg   %ax,%ax
    2e38:	0f 84 c2 05 00 00    	je     3400 <free@plt+0x2c28>
    2e3e:	83 c0 20             	add    $0x20,%eax
    2e41:	39 d0                	cmp    %edx,%eax
    2e43:	90                   	nop    
    2e44:	8d 74 26 00          	lea    0x0(%esi,%eiz,1),%esi
    2e48:	72 e6                	jb     2e30 <free@plt+0x2658>
    2e4a:	83 7d ec 02          	cmpl   $0x2,-0x14(%ebp)
    2e4e:	66 90                	xchg   %ax,%ax
    2e50:	0f 84 5b 11 00 00    	je     3fb1 <free@plt+0x37d9>
    2e56:	8b 83 ac fc ff ff    	mov    -0x354(%ebx),%eax
    2e5c:	31 c9                	xor    %ecx,%ecx
    2e5e:	c7 44 24 0c 00 00 00 	movl   $0x0,0xc(%esp)
    2e65:	00 
    2e66:	c7 44 24 08 00 00 00 	movl   $0x20000000,0x8(%esp)
    2e6d:	20 
    2e6e:	c7 44 24 04 00 00 00 	movl   $0x0,0x4(%esp)
    2e75:	00 
    2e76:	c7 04 24 01 00 00 00 	movl   $0x1,(%esp)
    2e7d:	8b 10                	mov    (%eax),%edx
    2e7f:	31 c0                	xor    %eax,%eax
    2e81:	e8 1a 46 00 00       	call   74a0 <_dl_rtld_di_serinfo+0x1c0>
    2e86:	83 ec 10             	sub    $0x10,%esp
    2e89:	8b 93 2c 00 00 00    	mov    0x2c(%ebx),%edx
    2e8f:	8d 83 4f cf ff ff    	lea    -0x30b1(%ebx),%eax
    2e95:	8b 7d 10             	mov    0x10(%ebp),%edi
    2e98:	c6 85 27 ff ff ff 01 	movb   $0x1,-0xd9(%ebp)
    2e9f:	8b 8a 50 01 00 00    	mov    0x150(%edx),%ecx
    2ea5:	0f b7 b2 58 01 00 00 	movzwl 0x158(%edx),%esi
    2eac:	89 42 04             	mov    %eax,0x4(%edx)
    2eaf:	8b 82 54 01 00 00    	mov    0x154(%edx),%eax
    2eb5:	89 95 1c ff ff ff    	mov    %edx,-0xe4(%ebp)
    2ebb:	89 4d 08             	mov    %ecx,0x8(%ebp)
    2ebe:	89 75 0c             	mov    %esi,0xc(%ebp)
    2ec1:	89 07                	mov    %eax,(%edi)
    2ec3:	e9 5b f1 ff ff       	jmp    2023 <free@plt+0x184b>
    2ec8:	8d 14 85 fc ff ff ff 	lea    -0x4(,%eax,4),%edx
    2ecf:	8b 75 ec             	mov    -0x14(%ebp),%esi
    2ed2:	8b 14 11             	mov    (%ecx,%edx,1),%edx
    2ed5:	85 f6                	test   %esi,%esi
    2ed7:	89 93 bc 02 00 00    	mov    %edx,0x2bc(%ebx)
    2edd:	0f 85 bb 10 00 00    	jne    3f9e <free@plt+0x37c6>
    2ee3:	8b 95 1c ff ff ff    	mov    -0xe4(%ebp),%edx
    2ee9:	83 c0 01             	add    $0x1,%eax
    2eec:	31 f6                	xor    %esi,%esi
    2eee:	3b 82 60 01 00 00    	cmp    0x160(%edx),%eax
    2ef4:	73 03                	jae    2ef9 <free@plt+0x2721>
    2ef6:	8b 34 81             	mov    (%ecx,%eax,4),%esi
    2ef9:	8b 83 5c fe ff ff    	mov    -0x1a4(%ebx),%eax
    2eff:	89 b3 b8 02 00 00    	mov    %esi,0x2b8(%ebx)
    2f05:	85 c0                	test   %eax,%eax
    2f07:	0f 84 c0 04 00 00    	je     33cd <free@plt+0x2bf5>
    2f0d:	8b 8b bc 02 00 00    	mov    0x2bc(%ebx),%ecx
    2f13:	8b 51 0c             	mov    0xc(%ecx),%edx
    2f16:	39 d0                	cmp    %edx,%eax
    2f18:	0f 84 6a 10 00 00    	je     3f88 <free@plt+0x37b0>
    2f1e:	89 c8                	mov    %ecx,%eax
    2f20:	39 93 b8 02 00 00    	cmp    %edx,0x2b8(%ebx)
    2f26:	89 c1                	mov    %eax,%ecx
    2f28:	0f 85 30 10 00 00    	jne    3f5e <free@plt+0x3786>
    2f2e:	8b b5 d4 fe ff ff    	mov    -0x12c(%ebp),%esi
    2f34:	c6 85 3a ff ff ff 01 	movb   $0x1,-0xc6(%ebp)
    2f3b:	89 71 0c             	mov    %esi,0xc(%ecx)
    2f3e:	8b 93 b8 02 00 00    	mov    0x2b8(%ebx),%edx
    2f44:	85 d2                	test   %edx,%edx
    2f46:	74 1f                	je     2f67 <free@plt+0x278f>
    2f48:	8b 42 10             	mov    0x10(%edx),%eax
    2f4b:	3b 83 bc 02 00 00    	cmp    0x2bc(%ebx),%eax
    2f51:	0f 85 a1 12 00 00    	jne    41f8 <free@plt+0x3a20>
    2f57:	8b bd d4 fe ff ff    	mov    -0x12c(%ebp),%edi
    2f5d:	c6 85 3a ff ff ff 01 	movb   $0x1,-0xc6(%ebp)
    2f64:	89 7a 10             	mov    %edi,0x10(%edx)
    2f67:	31 c0                	xor    %eax,%eax
    2f69:	83 7d ec 00          	cmpl   $0x0,-0x14(%ebp)
    2f6d:	8d 4d c4             	lea    -0x3c(%ebp),%ecx
    2f70:	8d 93 2c 78 fe ff    	lea    -0x187d4(%ebx),%edx
    2f76:	0f 94 c0             	sete   %al
    2f79:	89 45 c4             	mov    %eax,-0x3c(%ebp)
    2f7c:	31 c0                	xor    %eax,%eax
    2f7e:	83 7d ec 03          	cmpl   $0x3,-0x14(%ebp)
    2f82:	0f 94 c0             	sete   %al
    2f85:	89 45 c8             	mov    %eax,-0x38(%ebp)
    2f88:	8d 83 3c 40 fe ff    	lea    -0x1bfc4(%ebx),%eax
    2f8e:	e8 cd af 00 00       	call   df60 <_dl_rtld_di_serinfo+0x6c80>
    2f93:	0f b6 83 f0 05 00 00 	movzbl 0x5f0(%ebx),%eax
    2f9a:	88 85 3b ff ff ff    	mov    %al,-0xc5(%ebp)
    2fa0:	8b 85 28 ff ff ff    	mov    -0xd8(%ebp),%eax
    2fa6:	85 c0                	test   %eax,%eax
    2fa8:	0f 84 77 10 00 00    	je     4025 <free@plt+0x384d>
    2fae:	8b 83 d4 05 00 00    	mov    0x5d4(%ebx),%eax
    2fb4:	85 c0                	test   %eax,%eax
    2fb6:	75 05                	jne    2fbd <free@plt+0x27e5>
    2fb8:	e8 f3 ec ff ff       	call   1cb0 <free@plt+0x14d8>
    2fbd:	8b 7d ec             	mov    -0x14(%ebp),%edi
    2fc0:	85 ff                	test   %edi,%edi
    2fc2:	0f 85 75 10 00 00    	jne    403d <free@plt+0x3865>
    2fc8:	8b bd 1c ff ff ff    	mov    -0xe4(%ebp),%edi
    2fce:	8b 97 3c 01 00 00    	mov    0x13c(%edi),%edx
    2fd4:	85 d2                	test   %edx,%edx
    2fd6:	0f 84 c8 01 00 00    	je     31a4 <free@plt+0x29cc>
    2fdc:	8b b3 38 fe ff ff    	mov    -0x1c8(%ebx),%esi
    2fe2:	85 f6                	test   %esi,%esi
    2fe4:	0f 85 ba 01 00 00    	jne    31a4 <free@plt+0x29cc>
    2fea:	8b 8b fc fc ff ff    	mov    -0x304(%ebx),%ecx
    2ff0:	85 c9                	test   %ecx,%ecx
    2ff2:	0f 85 ac 01 00 00    	jne    31a4 <free@plt+0x29cc>
    2ff8:	8b 47 34             	mov    0x34(%edi),%eax
    2ffb:	8b 40 04             	mov    0x4(%eax),%eax
    2ffe:	89 85 70 ff ff ff    	mov    %eax,-0x90(%ebp)
    3004:	8b 87 14 01 00 00    	mov    0x114(%edi),%eax
    300a:	85 c0                	test   %eax,%eax
    300c:	0f 84 81 0e 00 00    	je     3e93 <free@plt+0x36bb>
    3012:	8b 7a 04             	mov    0x4(%edx),%edi
    3015:	8b 40 04             	mov    0x4(%eax),%eax
    3018:	01 f8                	add    %edi,%eax
    301a:	89 85 68 ff ff ff    	mov    %eax,-0x98(%ebp)
    3020:	8b 85 1c ff ff ff    	mov    -0xe4(%ebp),%eax
    3026:	8b b0 5c 01 00 00    	mov    0x15c(%eax),%esi
    302c:	8b 80 60 01 00 00    	mov    0x160(%eax),%eax
    3032:	8d 04 86             	lea    (%esi,%eax,4),%eax
    3035:	39 c6                	cmp    %eax,%esi
    3037:	89 85 6c ff ff ff    	mov    %eax,-0x94(%ebp)
    303d:	0f 82 e4 00 00 00    	jb     3127 <free@plt+0x294f>
    3043:	3b b5 6c ff ff ff    	cmp    -0x94(%ebp),%esi
    3049:	0f 94 85 26 ff ff ff 	sete   -0xda(%ebp)
    3050:	3b bd 68 ff ff ff    	cmp    -0x98(%ebp),%edi
    3056:	0f 94 c0             	sete   %al
    3059:	20 85 26 ff ff ff    	and    %al,-0xda(%ebp)
    305f:	f6 83 cc fc ff ff 01 	testb  $0x1,-0x334(%ebx)
    3066:	0f 85 8c 0e 00 00    	jne    3ef8 <free@plt+0x3720>
    306c:	8b 85 1c ff ff ff    	mov    -0xe4(%ebp),%eax
    3072:	8b 8d 1c ff ff ff    	mov    -0xe4(%ebp),%ecx
    3078:	05 5c 01 00 00       	add    $0x15c,%eax
    307d:	89 83 34 00 00 00    	mov    %eax,0x34(%ebx)
    3083:	8b 91 5c 01 00 00    	mov    0x15c(%ecx),%edx
    3089:	8b 81 60 01 00 00    	mov    0x160(%ecx),%eax
    308f:	80 bd 26 ff ff ff 00 	cmpb   $0x0,-0xda(%ebp)
    3096:	89 93 e0 fc ff ff    	mov    %edx,-0x320(%ebx)
    309c:	89 83 e4 fc ff ff    	mov    %eax,-0x31c(%ebx)
    30a2:	0f 84 2b 01 00 00    	je     31d3 <free@plt+0x29fb>
    30a8:	8b 91 40 01 00 00    	mov    0x140(%ecx),%edx
    30ae:	85 d2                	test   %edx,%edx
    30b0:	74 2d                	je     30df <free@plt+0x2907>
    30b2:	8b 81 18 01 00 00    	mov    0x118(%ecx),%eax
    30b8:	85 c0                	test   %eax,%eax
    30ba:	0f 84 0e 0e 00 00    	je     3ece <free@plt+0x36f6>
    30c0:	8b 52 04             	mov    0x4(%edx),%edx
    30c3:	8b 70 04             	mov    0x4(%eax),%esi
    30c6:	8b bd 1c ff ff ff    	mov    -0xe4(%ebp),%edi
    30cc:	89 54 24 04          	mov    %edx,0x4(%esp)
    30d0:	8d 04 32             	lea    (%edx,%esi,1),%eax
    30d3:	89 44 24 08          	mov    %eax,0x8(%esp)
    30d7:	89 3c 24             	mov    %edi,(%esp)
    30da:	e8 11 d6 00 00       	call   106f0 <_dl_mcount+0xa20>
    30df:	8b b5 1c ff ff ff    	mov    -0xe4(%ebp),%esi
    30e5:	eb 26                	jmp    310d <free@plt+0x2935>
    30e7:	8b 86 30 02 00 00    	mov    0x230(%esi),%eax
    30ed:	85 c0                	test   %eax,%eax
    30ef:	74 11                	je     3102 <free@plt+0x292a>
    30f1:	80 bb f0 05 00 00 00 	cmpb   $0x0,0x5f0(%ebx)
    30f8:	74 08                	je     3102 <free@plt+0x292a>
    30fa:	89 34 24             	mov    %esi,(%esp)
    30fd:	e8 ee d8 00 00       	call   109f0 <_dl_get_tls_static_info+0x1e0>
    3102:	8b 76 0c             	mov    0xc(%esi),%esi
    3105:	85 f6                	test   %esi,%esi
    3107:	0f 84 ad 02 00 00    	je     33ba <free@plt+0x2be2>
    310d:	8b 86 48 02 00 00    	mov    0x248(%esi),%eax
    3113:	80 8e 94 01 00 00 04 	orb    $0x4,0x194(%esi)
    311a:	85 c0                	test   %eax,%eax
    311c:	74 c9                	je     30e7 <free@plt+0x290f>
    311e:	89 f0                	mov    %esi,%eax
    3120:	e8 0b 72 00 00       	call   a330 <_dl_rtld_di_serinfo+0x3050>
    3125:	eb c0                	jmp    30e7 <free@plt+0x290f>
    3127:	3b bd 68 ff ff ff    	cmp    -0x98(%ebp),%edi
    312d:	0f 83 10 ff ff ff    	jae    3043 <free@plt+0x286b>
    3133:	8b 16                	mov    (%esi),%edx
    3135:	3b 95 1c ff ff ff    	cmp    -0xe4(%ebp),%edx
    313b:	74 56                	je     3193 <free@plt+0x29bb>
    313d:	8b 02                	mov    (%edx),%eax
    313f:	85 c0                	test   %eax,%eax
    3141:	0f 85 fc fe ff ff    	jne    3043 <free@plt+0x286b>
    3147:	8b 82 10 01 00 00    	mov    0x110(%edx),%eax
    314d:	85 c0                	test   %eax,%eax
    314f:	0f 84 ee fe ff ff    	je     3043 <free@plt+0x286b>
    3155:	8b 40 04             	mov    0x4(%eax),%eax
    3158:	3b 47 08             	cmp    0x8(%edi),%eax
    315b:	0f 85 e2 fe ff ff    	jne    3043 <free@plt+0x286b>
    3161:	8b 82 1c 01 00 00    	mov    0x11c(%edx),%eax
    3167:	85 c0                	test   %eax,%eax
    3169:	0f 84 d4 fe ff ff    	je     3043 <free@plt+0x286b>
    316f:	8b 40 04             	mov    0x4(%eax),%eax
    3172:	3b 47 04             	cmp    0x4(%edi),%eax
    3175:	0f 85 c8 fe ff ff    	jne    3043 <free@plt+0x286b>
    317b:	8b 85 70 ff ff ff    	mov    -0x90(%ebp),%eax
    3181:	03 07                	add    (%edi),%eax
    3183:	e8 98 bb 00 00       	call   ed20 <_dl_debug_state+0x10>
    3188:	85 c0                	test   %eax,%eax
    318a:	0f 84 b3 fe ff ff    	je     3043 <free@plt+0x286b>
    3190:	83 c7 14             	add    $0x14,%edi
    3193:	83 c6 04             	add    $0x4,%esi
    3196:	39 b5 6c ff ff ff    	cmp    %esi,-0x94(%ebp)
    319c:	0f 86 a1 fe ff ff    	jbe    3043 <free@plt+0x286b>
    31a2:	eb 83                	jmp    3127 <free@plt+0x294f>
    31a4:	8b 85 1c ff ff ff    	mov    -0xe4(%ebp),%eax
    31aa:	8b bd 1c ff ff ff    	mov    -0xe4(%ebp),%edi
    31b0:	05 5c 01 00 00       	add    $0x15c,%eax
    31b5:	89 83 34 00 00 00    	mov    %eax,0x34(%ebx)
    31bb:	8b 97 5c 01 00 00    	mov    0x15c(%edi),%edx
    31c1:	8b 87 60 01 00 00    	mov    0x160(%edi),%eax
    31c7:	89 93 e0 fc ff ff    	mov    %edx,-0x320(%ebx)
    31cd:	89 83 e4 fc ff ff    	mov    %eax,-0x31c(%ebx)
    31d3:	8b 83 38 fe ff ff    	mov    -0x1c8(%ebx),%eax
    31d9:	8b b5 1c ff ff ff    	mov    -0xe4(%ebp),%esi
    31df:	85 c0                	test   %eax,%eax
    31e1:	0f 95 c0             	setne  %al
    31e4:	0f b6 f8             	movzbl %al,%edi
    31e7:	09 bb f4 fc ff ff    	or     %edi,-0x30c(%ebx)
    31ed:	eb 02                	jmp    31f1 <free@plt+0x2a19>
    31ef:	89 c6                	mov    %eax,%esi
    31f1:	8b 46 0c             	mov    0xc(%esi),%eax
    31f4:	85 c0                	test   %eax,%eax
    31f6:	75 f7                	jne    31ef <free@plt+0x2a17>
    31f8:	8b 46 1c             	mov    0x1c(%esi),%eax
    31fb:	8b 40 04             	mov    0x4(%eax),%eax
    31fe:	85 c0                	test   %eax,%eax
    3200:	74 32                	je     3234 <free@plt+0x2a5c>
    3202:	c7 40 08 01 00 00 00 	movl   $0x1,0x8(%eax)
    3209:	8b 40 04             	mov    0x4(%eax),%eax
    320c:	85 c0                	test   %eax,%eax
    320e:	74 24                	je     3234 <free@plt+0x2a5c>
    3210:	eb f0                	jmp    3202 <free@plt+0x2a2a>
    3212:	8d b6 00 00 00 00    	lea    0x0(%esi),%esi
    3218:	89 34 24             	mov    %esi,(%esp)
    321b:	e8 d0 d7 00 00       	call   109f0 <_dl_get_tls_static_info+0x1e0>
    3220:	8b 76 10             	mov    0x10(%esi),%esi
    3223:	85 f6                	test   %esi,%esi
    3225:	8d 76 00             	lea    0x0(%esi),%esi
    3228:	74 4c                	je     3276 <free@plt+0x2a9e>
    322a:	8b 46 1c             	mov    0x1c(%esi),%eax
    322d:	8b 40 04             	mov    0x4(%eax),%eax
    3230:	85 c0                	test   %eax,%eax
    3232:	75 ce                	jne    3202 <free@plt+0x2a2a>
    3234:	3b b5 d4 fe ff ff    	cmp    -0x12c(%ebp),%esi
    323a:	74 20                	je     325c <free@plt+0x2a84>
    323c:	89 7c 24 0c          	mov    %edi,0xc(%esp)
    3240:	8b 83 f4 fc ff ff    	mov    -0x30c(%ebx),%eax
    3246:	89 44 24 08          	mov    %eax,0x8(%esp)
    324a:	8b 86 cc 01 00 00    	mov    0x1cc(%esi),%eax
    3250:	89 34 24             	mov    %esi,(%esp)
    3253:	89 44 24 04          	mov    %eax,0x4(%esp)
    3257:	e8 54 73 00 00       	call   a5b0 <_dl_rtld_di_serinfo+0x32d0>
    325c:	8b 86 30 02 00 00    	mov    0x230(%esi),%eax
    3262:	85 c0                	test   %eax,%eax
    3264:	74 ba                	je     3220 <free@plt+0x2a48>
    3266:	80 bb f0 05 00 00 00 	cmpb   $0x0,0x5f0(%ebx)
    326d:	75 a9                	jne    3218 <free@plt+0x2a40>
    326f:	8b 76 10             	mov    0x10(%esi),%esi
    3272:	85 f6                	test   %esi,%esi
    3274:	75 b4                	jne    322a <free@plt+0x2a52>
    3276:	e8 15 08 01 00       	call   13a90 <_dl_make_stack_executable+0x2250>
    327b:	8b 83 98 02 00 00    	mov    0x298(%ebx),%eax
    3281:	c6 85 26 ff ff ff 00 	movb   $0x0,-0xda(%ebp)
    3288:	85 c0                	test   %eax,%eax
    328a:	0f 85 2d 0c 00 00    	jne    3ebd <free@plt+0x36e5>
    3290:	80 bd 3b ff ff ff 00 	cmpb   $0x0,-0xc5(%ebp)
    3297:	75 11                	jne    32aa <free@plt+0x2ad2>
    3299:	8b bb 94 05 00 00    	mov    0x594(%ebx),%edi
    329f:	85 ff                	test   %edi,%edi
    32a1:	74 07                	je     32aa <free@plt+0x2ad2>
    32a3:	83 83 b0 05 00 00 01 	addl   $0x1,0x5b0(%ebx)
    32aa:	8b 85 28 ff ff ff    	mov    -0xd8(%ebp),%eax
    32b0:	e8 1b d8 00 00       	call   10ad0 <_dl_allocate_tls_init>
    32b5:	80 bb f0 05 00 00 00 	cmpb   $0x0,0x5f0(%ebx)
    32bc:	75 60                	jne    331e <free@plt+0x2b46>
    32be:	8b 85 28 ff ff ff    	mov    -0xd8(%ebp),%eax
    32c4:	8b 95 28 ff ff ff    	mov    -0xd8(%ebp),%edx
    32ca:	89 00                	mov    %eax,(%eax)
    32cc:	89 40 08             	mov    %eax,0x8(%eax)
    32cf:	8b 83 54 fe ff ff    	mov    -0x1ac(%ebx),%eax
    32d5:	89 42 10             	mov    %eax,0x10(%edx)
    32d8:	b8 f3 00 00 00       	mov    $0xf3,%eax
    32dd:	89 55 a4             	mov    %edx,-0x5c(%ebp)
    32e0:	8d 55 a0             	lea    -0x60(%ebp),%edx
    32e3:	c7 45 a0 ff ff ff ff 	movl   $0xffffffff,-0x60(%ebp)
    32ea:	c7 45 a8 ff ff 0f 00 	movl   $0xfffff,-0x58(%ebp)
    32f1:	c7 45 ac 51 00 00 00 	movl   $0x51,-0x54(%ebp)
    32f8:	87 d3                	xchg   %edx,%ebx
    32fa:	cd 80                	int    $0x80
    32fc:	87 d3                	xchg   %edx,%ebx
    32fe:	85 c0                	test   %eax,%eax
    3300:	8d bb d0 b2 ff ff    	lea    -0x4d30(%ebx),%edi
    3306:	8d b3 10 b3 ff ff    	lea    -0x4cf0(%ebx),%esi
    330c:	0f 85 86 00 00 00    	jne    3398 <free@plt+0x2bc0>
    3312:	8b 45 a0             	mov    -0x60(%ebp),%eax
    3315:	8d 04 c5 03 00 00 00 	lea    0x3(,%eax,8),%eax
    331c:	8e e8                	mov    %eax,%gs
    331e:	80 bd 26 ff ff ff 00 	cmpb   $0x0,-0xda(%ebp)
    3325:	75 3e                	jne    3365 <free@plt+0x2b8d>
    3327:	80 bd 3a ff ff ff 00 	cmpb   $0x0,-0xc6(%ebp)
    332e:	74 35                	je     3365 <free@plt+0x2b8d>
    3330:	80 a3 40 04 00 00 fb 	andb   $0xfb,0x440(%ebx)
    3337:	8b 8d 1c ff ff ff    	mov    -0xe4(%ebp),%ecx
    333d:	c7 44 24 0c 00 00 00 	movl   $0x0,0xc(%esp)
    3344:	00 
    3345:	8b b5 d4 fe ff ff    	mov    -0x12c(%ebp),%esi
    334b:	c7 44 24 08 00 00 00 	movl   $0x0,0x8(%esp)
    3352:	00 
    3353:	8b 81 cc 01 00 00    	mov    0x1cc(%ecx),%eax
    3359:	89 34 24             	mov    %esi,(%esp)
    335c:	89 44 24 04          	mov    %eax,0x4(%esp)
    3360:	e8 4b 72 00 00       	call   a5b0 <_dl_rtld_di_serinfo+0x32d0>
    3365:	8b b3 8c fe ff ff    	mov    -0x174(%ebx),%esi
    336b:	85 f6                	test   %esi,%esi
    336d:	0f 85 64 04 00 00    	jne    37d7 <free@plt+0x2fff>
    3373:	31 d2                	xor    %edx,%edx
    3375:	31 c0                	xor    %eax,%eax
    3377:	e8 04 b9 00 00       	call   ec80 <_dl_rtld_di_serinfo+0x79a0>
    337c:	c7 40 0c 00 00 00 00 	movl   $0x0,0xc(%eax)
    3383:	e8 88 b9 00 00       	call   ed10 <_dl_debug_state>
    3388:	e8 c3 50 00 00       	call   8450 <_dl_rtld_di_serinfo+0x1170>
    338d:	8d 65 f4             	lea    -0xc(%ebp),%esp
    3390:	5b                   	pop    %ebx
    3391:	5e                   	pop    %esi
    3392:	5f                   	pop    %edi
    3393:	5d                   	pop    %ebp
    3394:	c3                   	ret    
    3395:	8d 76 00             	lea    0x0(%esi),%esi
    3398:	89 7c 24 08          	mov    %edi,0x8(%esp)
    339c:	89 74 24 04          	mov    %esi,0x4(%esp)
    33a0:	c7 04 24 02 00 00 00 	movl   $0x2,(%esp)
    33a7:	e8 44 bf 00 00       	call   f2f0 <_dl_debug_state+0x5e0>
    33ac:	c7 04 24 7f 00 00 00 	movl   $0x7f,(%esp)
    33b3:	e8 8c 32 01 00       	call   16644 <calloc+0x1494>
    33b8:	eb de                	jmp    3398 <free@plt+0x2bc0>
    33ba:	8d b6 00 00 00 00    	lea    0x0(%esi),%esi
    33c0:	e8 cb 06 01 00       	call   13a90 <_dl_make_stack_executable+0x2250>
    33c5:	8d 76 00             	lea    0x0(%esi),%esi
    33c8:	e9 c3 fe ff ff       	jmp    3290 <free@plt+0x2ab8>
    33cd:	8b 83 bc 02 00 00    	mov    0x2bc(%ebx),%eax
    33d3:	8b 50 0c             	mov    0xc(%eax),%edx
    33d6:	e9 45 fb ff ff       	jmp    2f20 <free@plt+0x2748>
    33db:	8b 83 b0 02 00 00    	mov    0x2b0(%ebx),%eax
    33e1:	85 c0                	test   %eax,%eax
    33e3:	0f 84 c4 03 00 00    	je     37ad <free@plt+0x2fd5>
    33e9:	89 83 d8 05 00 00    	mov    %eax,0x5d8(%ebx)
    33ef:	8d 83 d8 05 00 00    	lea    0x5d8(%ebx),%eax
    33f5:	89 83 c8 02 00 00    	mov    %eax,0x2c8(%ebx)
    33fb:	e9 bd ed ff ff       	jmp    21bd <free@plt+0x19e5>
    3400:	8b 40 18             	mov    0x18(%eax),%eax
    3403:	89 83 8c 05 00 00    	mov    %eax,0x58c(%ebx)
    3409:	e9 3c fa ff ff       	jmp    2e4a <free@plt+0x2672>
    340e:	e8 bd d4 00 00       	call   108d0 <_dl_get_tls_static_info+0xc0>
    3413:	89 83 ec 04 00 00    	mov    %eax,0x4ec(%ebx)
    3419:	e9 2d f7 ff ff       	jmp    2b4b <free@plt+0x2373>
    341e:	83 39 01             	cmpl   $0x1,(%ecx)
    3421:	19 c0                	sbb    %eax,%eax
    3423:	89 83 34 fe ff ff    	mov    %eax,-0x1cc(%ebx)
    3429:	e9 bf f6 ff ff       	jmp    2aed <free@plt+0x2315>
    342e:	8b 83 c8 02 00 00    	mov    0x2c8(%ebx),%eax
    3434:	8b 00                	mov    (%eax),%eax
    3436:	89 83 b0 02 00 00    	mov    %eax,0x2b0(%ebx)
    343c:	e9 5c f6 ff ff       	jmp    2a9d <free@plt+0x22c5>
    3441:	8d 83 c0 d0 ff ff    	lea    -0x2f40(%ebx),%eax
    3447:	89 44 24 0c          	mov    %eax,0xc(%esp)
    344b:	8d 83 9a cc ff ff    	lea    -0x3366(%ebx),%eax
    3451:	89 44 24 04          	mov    %eax,0x4(%esp)
    3455:	8d 83 b8 b8 ff ff    	lea    -0x4748(%ebx),%eax
    345b:	c7 44 24 08 e4 04 00 	movl   $0x4e4,0x8(%esp)
    3462:	00 
    3463:	89 04 24             	mov    %eax,(%esp)
    3466:	e8 f5 15 01 00       	call   14a60 <_dl_make_stack_executable+0x3220>
    346b:	8d 83 6c d0 ff ff    	lea    -0x2f94(%ebx),%eax
    3471:	89 44 24 0c          	mov    %eax,0xc(%esp)
    3475:	8d 83 40 cc ff ff    	lea    -0x33c0(%ebx),%eax
    347b:	89 44 24 04          	mov    %eax,0x4(%esp)
    347f:	8d 83 ad ce ff ff    	lea    -0x3153(%ebx),%eax
    3485:	c7 44 24 08 b3 00 00 	movl   $0xb3,0x8(%esp)
    348c:	00 
    348d:	89 04 24             	mov    %eax,(%esp)
    3490:	e8 cb 15 01 00       	call   14a60 <_dl_make_stack_executable+0x3220>
    3495:	8d 83 c0 d0 ff ff    	lea    -0x2f40(%ebx),%eax
    349b:	89 44 24 0c          	mov    %eax,0xc(%esp)
    349f:	8d 83 9a cc ff ff    	lea    -0x3366(%ebx),%eax
    34a5:	89 44 24 04          	mov    %eax,0x4(%esp)
    34a9:	8d 83 1f cf ff ff    	lea    -0x30e1(%ebx),%eax
    34af:	c7 44 24 08 6d 06 00 	movl   $0x66d,0x8(%esp)
    34b6:	00 
    34b7:	89 04 24             	mov    %eax,(%esp)
    34ba:	e8 a1 15 01 00       	call   14a60 <_dl_make_stack_executable+0x3220>
    34bf:	89 34 24             	mov    %esi,(%esp)
    34c2:	8d 7d e0             	lea    -0x20(%ebp),%edi
    34c5:	e8 56 35 01 00       	call   16a20 <calloc+0x1870>
    34ca:	8d 50 01             	lea    0x1(%eax),%edx
    34cd:	83 c0 13             	add    $0x13,%eax
    34d0:	83 e0 fc             	and    $0xfffffffc,%eax
    34d3:	29 c4                	sub    %eax,%esp
    34d5:	8d 44 24 2f          	lea    0x2f(%esp),%eax
    34d9:	83 e0 f0             	and    $0xfffffff0,%eax
    34dc:	89 54 24 08          	mov    %edx,0x8(%esp)
    34e0:	89 74 24 04          	mov    %esi,0x4(%esp)
    34e4:	89 04 24             	mov    %eax,(%esp)
    34e7:	e8 e4 39 01 00       	call   16ed0 <calloc+0x1d20>
    34ec:	89 bd e0 fe ff ff    	mov    %edi,-0x120(%ebp)
    34f2:	8d bb 48 cf ff ff    	lea    -0x30b8(%ebx),%edi
    34f8:	c7 85 34 ff ff ff 00 	movl   $0x0,-0xcc(%ebp)
    34ff:	00 00 00 
    3502:	89 45 e0             	mov    %eax,-0x20(%ebp)
    3505:	8d 83 3d cf ff ff    	lea    -0x30c3(%ebx),%eax
    350b:	89 85 90 fe ff ff    	mov    %eax,-0x170(%ebp)
    3511:	8b 8d e0 fe ff ff    	mov    -0x120(%ebp),%ecx
    3517:	89 7c 24 04          	mov    %edi,0x4(%esp)
    351b:	89 0c 24             	mov    %ecx,(%esp)
    351e:	e8 ad 15 01 00       	call   14ad0 <_dl_make_stack_executable+0x3290>
    3523:	85 c0                	test   %eax,%eax
    3525:	89 c6                	mov    %eax,%esi
    3527:	0f 84 a7 f6 ff ff    	je     2bd4 <free@plt+0x23fc>
    352d:	80 3e 00             	cmpb   $0x0,(%esi)
    3530:	74 df                	je     3511 <free@plt+0x2d39>
    3532:	8b 83 28 ff ff ff    	mov    -0xd8(%ebx),%eax
    3538:	85 c0                	test   %eax,%eax
    353a:	75 7a                	jne    35b6 <free@plt+0x2dde>
    353c:	8b 95 90 fe ff ff    	mov    -0x170(%ebp),%edx
    3542:	89 f0                	mov    %esi,%eax
    3544:	89 14 24             	mov    %edx,(%esp)
    3547:	8b 95 1c ff ff ff    	mov    -0xe4(%ebp),%edx
    354d:	e8 ce d9 ff ff       	call   f20 <free@plt+0x748>
    3552:	01 85 34 ff ff ff    	add    %eax,-0xcc(%ebp)
    3558:	eb b7                	jmp    3511 <free@plt+0x2d39>
    355a:	8d 55 e8             	lea    -0x18(%ebp),%edx
    355d:	b9 03 00 00 00       	mov    $0x3,%ecx
    3562:	89 f0                	mov    %esi,%eax
    3564:	e8 27 be 00 00       	call   f390 <_dl_debug_state+0x680>
    3569:	83 f8 ff             	cmp    $0xffffffff,%eax
    356c:	89 85 20 ff ff ff    	mov    %eax,-0xe0(%ebp)
    3572:	0f 84 80 f6 ff ff    	je     2bf8 <free@plt+0x2420>
    3578:	8b 55 e8             	mov    -0x18(%ebp),%edx
    357b:	89 45 e0             	mov    %eax,-0x20(%ebp)
    357e:	85 d2                	test   %edx,%edx
    3580:	89 d7                	mov    %edx,%edi
    3582:	74 52                	je     35d6 <free@plt+0x2dfe>
    3584:	8b 75 e0             	mov    -0x20(%ebp),%esi
    3587:	89 7c 24 08          	mov    %edi,0x8(%esp)
    358b:	c7 44 24 04 23 00 00 	movl   $0x23,0x4(%esp)
    3592:	00 
    3593:	89 34 24             	mov    %esi,(%esp)
    3596:	e8 e5 35 01 00       	call   16b80 <calloc+0x19d0>
    359b:	85 c0                	test   %eax,%eax
    359d:	74 34                	je     35d3 <free@plt+0x2dfb>
    359f:	29 c6                	sub    %eax,%esi
    35a1:	8d 3c 3e             	lea    (%esi,%edi,1),%edi
    35a4:	83 ef 01             	sub    $0x1,%edi
    35a7:	c6 00 20             	movb   $0x20,(%eax)
    35aa:	74 27                	je     35d3 <free@plt+0x2dfb>
    35ac:	83 c0 01             	add    $0x1,%eax
    35af:	80 38 0a             	cmpb   $0xa,(%eax)
    35b2:	75 f0                	jne    35a4 <free@plt+0x2dcc>
    35b4:	eb ce                	jmp    3584 <free@plt+0x2dac>
    35b6:	c7 44 24 04 2f 00 00 	movl   $0x2f,0x4(%esp)
    35bd:	00 
    35be:	89 34 24             	mov    %esi,(%esp)
    35c1:	e8 6a 32 01 00       	call   16830 <calloc+0x1680>
    35c6:	85 c0                	test   %eax,%eax
    35c8:	0f 85 43 ff ff ff    	jne    3511 <free@plt+0x2d39>
    35ce:	e9 69 ff ff ff       	jmp    353c <free@plt+0x2d64>
    35d3:	8b 55 e8             	mov    -0x18(%ebp),%edx
    35d6:	8b bd 20 ff ff ff    	mov    -0xe0(%ebp),%edi
    35dc:	8d 4c 17 ff          	lea    -0x1(%edi,%edx,1),%ecx
    35e0:	0f b6 01             	movzbl (%ecx),%eax
    35e3:	3c 20                	cmp    $0x20,%al
    35e5:	0f 84 2c 08 00 00    	je     3e17 <free@plt+0x363f>
    35eb:	3c 09                	cmp    $0x9,%al
    35ed:	0f 84 24 08 00 00    	je     3e17 <free@plt+0x363f>
    35f3:	3c 0a                	cmp    $0xa,%al
    35f5:	0f 84 1c 08 00 00    	je     3e17 <free@plt+0x363f>
    35fb:	3c 3a                	cmp    $0x3a,%al
    35fd:	8d 76 00             	lea    0x0(%esi),%esi
    3600:	0f 84 11 08 00 00    	je     3e17 <free@plt+0x363f>
    3606:	89 fe                	mov    %edi,%esi
    3608:	01 d6                	add    %edx,%esi
    360a:	39 f7                	cmp    %esi,%edi
    360c:	73 35                	jae    3643 <free@plt+0x2e6b>
    360e:	3c 20                	cmp    $0x20,%al
    3610:	89 ca                	mov    %ecx,%edx
    3612:	74 2b                	je     363f <free@plt+0x2e67>
    3614:	3c 09                	cmp    $0x9,%al
    3616:	74 27                	je     363f <free@plt+0x2e67>
    3618:	3c 0a                	cmp    $0xa,%al
    361a:	8d b6 00 00 00 00    	lea    0x0(%esi),%esi
    3620:	74 1d                	je     363f <free@plt+0x2e67>
    3622:	3c 3a                	cmp    $0x3a,%al
    3624:	8d 74 26 00          	lea    0x0(%esi,%eiz,1),%esi
    3628:	74 15                	je     363f <free@plt+0x2e67>
    362a:	3b 95 20 ff ff ff    	cmp    -0xe0(%ebp),%edx
    3630:	89 d6                	mov    %edx,%esi
    3632:	76 0f                	jbe    3643 <free@plt+0x2e6b>
    3634:	0f b6 46 ff          	movzbl -0x1(%esi),%eax
    3638:	8d 56 ff             	lea    -0x1(%esi),%edx
    363b:	3c 20                	cmp    $0x20,%al
    363d:	75 d5                	jne    3614 <free@plt+0x2e3c>
    363f:	c6 46 ff 00          	movb   $0x0,-0x1(%esi)
    3643:	39 b5 20 ff ff ff    	cmp    %esi,-0xe0(%ebp)
    3649:	0f 84 d2 07 00 00    	je     3e21 <free@plt+0x3649>
    364f:	8b 85 20 ff ff ff    	mov    -0xe0(%ebp),%eax
    3655:	8d 55 e0             	lea    -0x20(%ebp),%edx
    3658:	89 95 e0 fe ff ff    	mov    %edx,-0x120(%ebp)
    365e:	8d bb 4b cf ff ff    	lea    -0x30b5(%ebx),%edi
    3664:	89 45 e0             	mov    %eax,-0x20(%ebp)
    3667:	8b 85 e0 fe ff ff    	mov    -0x120(%ebp),%eax
    366d:	89 7c 24 04          	mov    %edi,0x4(%esp)
    3671:	89 04 24             	mov    %eax,(%esp)
    3674:	e8 57 14 01 00       	call   14ad0 <_dl_make_stack_executable+0x3290>
    3679:	85 c0                	test   %eax,%eax
    367b:	0f 84 a0 07 00 00    	je     3e21 <free@plt+0x3649>
    3681:	80 38 00             	cmpb   $0x0,(%eax)
    3684:	74 e1                	je     3667 <free@plt+0x2e8f>
    3686:	8b 8d e4 fe ff ff    	mov    -0x11c(%ebp),%ecx
    368c:	8b 95 1c ff ff ff    	mov    -0xe4(%ebp),%edx
    3692:	89 0c 24             	mov    %ecx,(%esp)
    3695:	e8 86 d8 ff ff       	call   f20 <free@plt+0x748>
    369a:	01 85 34 ff ff ff    	add    %eax,-0xcc(%ebp)
    36a0:	eb c5                	jmp    3667 <free@plt+0x2e8f>
    36a2:	8b 95 34 ff ff ff    	mov    -0xcc(%ebp),%edx
    36a8:	8d 04 95 10 00 00 00 	lea    0x10(,%edx,4),%eax
    36af:	29 c4                	sub    %eax,%esp
    36b1:	31 c0                	xor    %eax,%eax
    36b3:	8d 4c 24 2f          	lea    0x2f(%esp),%ecx
    36b7:	83 e1 f0             	and    $0xfffffff0,%ecx
    36ba:	89 ca                	mov    %ecx,%edx
    36bc:	89 34 81             	mov    %esi,(%ecx,%eax,4)
    36bf:	8b 76 0c             	mov    0xc(%esi),%esi
    36c2:	83 c0 01             	add    $0x1,%eax
    36c5:	85 f6                	test   %esi,%esi
    36c7:	75 f3                	jne    36bc <free@plt+0x2ee4>
    36c9:	3b 85 34 ff ff ff    	cmp    -0xcc(%ebp),%eax
    36cf:	0f 84 35 f5 ff ff    	je     2c0a <free@plt+0x2432>
    36d5:	8d 83 c0 d0 ff ff    	lea    -0x2f40(%ebx),%eax
    36db:	89 44 24 0c          	mov    %eax,0xc(%esp)
    36df:	8d 83 9a cc ff ff    	lea    -0x3366(%ebx),%eax
    36e5:	89 44 24 04          	mov    %eax,0x4(%esp)
    36e9:	8d 83 50 cf ff ff    	lea    -0x30b0(%ebx),%eax
    36ef:	c7 44 24 08 e8 06 00 	movl   $0x6e8,0x8(%esp)
    36f6:	00 
    36f7:	89 04 24             	mov    %eax,(%esp)
    36fa:	e8 61 13 01 00       	call   14a60 <_dl_make_stack_executable+0x3220>
    36ff:	8b 95 1c ff ff ff    	mov    -0xe4(%ebp),%edx
    3705:	8b 42 08             	mov    0x8(%edx),%eax
    3708:	85 c0                	test   %eax,%eax
    370a:	75 0c                	jne    3718 <free@plt+0x2f40>
    370c:	c7 04 24 01 00 00 00 	movl   $0x1,(%esp)
    3713:	e8 2c 2f 01 00       	call   16644 <calloc+0x1494>
    3718:	8b 8d 1c ff ff ff    	mov    -0xe4(%ebp),%ecx
    371e:	8b 41 24             	mov    0x24(%ecx),%eax
    3721:	85 c0                	test   %eax,%eax
    3723:	0f 84 1c 08 00 00    	je     3f45 <free@plt+0x376d>
    3729:	8b 41 34             	mov    0x34(%ecx),%eax
    372c:	8b 71 08             	mov    0x8(%ecx),%esi
    372f:	8b 40 04             	mov    0x4(%eax),%eax
    3732:	89 b5 70 fe ff ff    	mov    %esi,-0x190(%ebp)
    3738:	89 85 3c ff ff ff    	mov    %eax,-0xc4(%ebp)
    373e:	8b 06                	mov    (%esi),%eax
    3740:	85 c0                	test   %eax,%eax
    3742:	0f 84 e7 07 00 00    	je     3f2f <free@plt+0x3757>
    3748:	8d bb 8d ce ff ff    	lea    -0x3173(%ebx),%edi
    374e:	89 bd 7c fe ff ff    	mov    %edi,-0x184(%ebp)
    3754:	eb 19                	jmp    376f <free@plt+0x2f97>
    3756:	66 90                	xchg   %ax,%ax
    3758:	83 85 70 fe ff ff 08 	addl   $0x8,-0x190(%ebp)
    375f:	8b 95 70 fe ff ff    	mov    -0x190(%ebp),%edx
    3765:	8b 02                	mov    (%edx),%eax
    3767:	85 c0                	test   %eax,%eax
    3769:	0f 84 c0 07 00 00    	je     3f2f <free@plt+0x3757>
    376f:	83 e8 01             	sub    $0x1,%eax
    3772:	75 e4                	jne    3758 <free@plt+0x2f80>
    3774:	8b 85 70 fe ff ff    	mov    -0x190(%ebp),%eax
    377a:	b9 0a 00 00 00       	mov    $0xa,%ecx
    377f:	8b b5 3c ff ff ff    	mov    -0xc4(%ebp),%esi
    3785:	8b bd 7c fe ff ff    	mov    -0x184(%ebp),%edi
    378b:	03 70 04             	add    0x4(%eax),%esi
    378e:	f3 a6                	repz cmpsb %es:(%edi),%ds:(%esi)
    3790:	75 c6                	jne    3758 <free@plt+0x2f80>
    3792:	8d 83 97 ce ff ff    	lea    -0x3169(%ebx),%eax
    3798:	e9 98 07 00 00       	jmp    3f35 <free@plt+0x375d>
    379d:	39 c2                	cmp    %eax,%edx
    379f:	0f 86 ba f2 ff ff    	jbe    2a5f <free@plt+0x2287>
    37a5:	8d 76 00             	lea    0x0(%esi),%esi
    37a8:	e9 ac f2 ff ff       	jmp    2a59 <free@plt+0x2281>
    37ad:	8d 83 c0 d0 ff ff    	lea    -0x2f40(%ebx),%eax
    37b3:	89 44 24 0c          	mov    %eax,0xc(%esp)
    37b7:	8d 83 9a cc ff ff    	lea    -0x3366(%ebx),%eax
    37bd:	89 44 24 04          	mov    %eax,0x4(%esp)
    37c1:	8d 83 94 b8 ff ff    	lea    -0x476c(%ebx),%eax
    37c7:	c7 44 24 08 d5 04 00 	movl   $0x4d5,0x8(%esp)
    37ce:	00 
    37cf:	89 04 24             	mov    %eax,(%esp)
    37d2:	e8 89 12 01 00       	call   14a60 <_dl_make_stack_executable+0x3220>
    37d7:	8b bb 2c 00 00 00    	mov    0x2c(%ebx),%edi
    37dd:	89 bd 74 ff ff ff    	mov    %edi,-0x8c(%ebp)
    37e3:	f6 87 95 01 00 00 10 	testb  $0x10,0x195(%edi)
    37ea:	0f 85 83 fb ff ff    	jne    3373 <free@plt+0x2b9b>
    37f0:	8b bb 88 fe ff ff    	mov    -0x178(%ebx),%edi
    37f6:	31 f6                	xor    %esi,%esi
    37f8:	8b 17                	mov    (%edi),%edx
    37fa:	85 d2                	test   %edx,%edx
    37fc:	74 1a                	je     3818 <free@plt+0x3040>
    37fe:	8b 8d 74 ff ff ff    	mov    -0x8c(%ebp),%ecx
    3804:	c7 44 24 04 00 00 00 	movl   $0x0,0x4(%esp)
    380b:	00 
    380c:	8d 84 f1 54 02 00 00 	lea    0x254(%ecx,%esi,8),%eax
    3813:	89 04 24             	mov    %eax,(%esp)
    3816:	ff d2                	call   *%edx
    3818:	83 c6 01             	add    $0x1,%esi
    381b:	8b 7f 20             	mov    0x20(%edi),%edi
    381e:	39 b3 8c fe ff ff    	cmp    %esi,-0x174(%ebx)
    3824:	77 d2                	ja     37f8 <free@plt+0x3020>
    3826:	e9 48 fb ff ff       	jmp    3373 <free@plt+0x2b9b>
    382b:	8b bb 88 fe ff ff    	mov    -0x178(%ebx),%edi
    3831:	31 f6                	xor    %esi,%esi
    3833:	8b 17                	mov    (%edi),%edx
    3835:	85 d2                	test   %edx,%edx
    3837:	74 1a                	je     3853 <free@plt+0x307b>
    3839:	8b 8d 1c ff ff ff    	mov    -0xe4(%ebp),%ecx
    383f:	c7 44 24 04 01 00 00 	movl   $0x1,0x4(%esp)
    3846:	00 
    3847:	8d 84 f1 54 02 00 00 	lea    0x254(%ecx,%esi,8),%eax
    384e:	89 04 24             	mov    %eax,(%esp)
    3851:	ff d2                	call   *%edx
    3853:	83 c6 01             	add    $0x1,%esi
    3856:	8b 7f 20             	mov    0x20(%edi),%edi
    3859:	39 b3 8c fe ff ff    	cmp    %esi,-0x174(%ebx)
    385f:	77 d2                	ja     3833 <free@plt+0x305b>
    3861:	e9 46 f3 ff ff       	jmp    2bac <free@plt+0x23d4>
    3866:	8d 83 6c d0 ff ff    	lea    -0x2f94(%ebx),%eax
    386c:	89 44 24 0c          	mov    %eax,0xc(%esp)
    3870:	8d 83 40 cc ff ff    	lea    -0x33c0(%ebx),%eax
    3876:	89 44 24 04          	mov    %eax,0x4(%esp)
    387a:	8d 83 50 b9 ff ff    	lea    -0x46b0(%ebx),%eax
    3880:	c7 44 24 08 c3 00 00 	movl   $0xc3,0x8(%esp)
    3887:	00 
    3888:	89 04 24             	mov    %eax,(%esp)
    388b:	e8 d0 11 01 00       	call   14a60 <_dl_make_stack_executable+0x3220>
    3890:	8d 83 6c d0 ff ff    	lea    -0x2f94(%ebx),%eax
    3896:	89 44 24 0c          	mov    %eax,0xc(%esp)
    389a:	8d 83 40 cc ff ff    	lea    -0x33c0(%ebx),%eax
    38a0:	89 44 24 04          	mov    %eax,0x4(%esp)
    38a4:	8d 83 8c af ff ff    	lea    -0x5074(%ebx),%eax
    38aa:	c7 44 24 08 c7 00 00 	movl   $0xc7,0x8(%esp)
    38b1:	00 
    38b2:	89 04 24             	mov    %eax,(%esp)
    38b5:	e8 a6 11 01 00       	call   14a60 <_dl_make_stack_executable+0x3220>
    38ba:	8d 83 c0 d0 ff ff    	lea    -0x2f40(%ebx),%eax
    38c0:	89 44 24 0c          	mov    %eax,0xc(%esp)
    38c4:	8d 83 9a cc ff ff    	lea    -0x3366(%ebx),%eax
    38ca:	89 44 24 04          	mov    %eax,0x4(%esp)
    38ce:	8d 83 de ce ff ff    	lea    -0x3122(%ebx),%eax
    38d4:	c7 44 24 08 50 05 00 	movl   $0x550,0x8(%esp)
    38db:	00 
    38dc:	89 04 24             	mov    %eax,(%esp)
    38df:	e8 7c 11 01 00       	call   14a60 <_dl_make_stack_executable+0x3220>
    38e4:	b8 01 00 00 00       	mov    $0x1,%eax
    38e9:	31 d2                	xor    %edx,%edx
    38eb:	e9 df f5 ff ff       	jmp    2ecf <free@plt+0x26f7>
    38f0:	8d 83 c0 d0 ff ff    	lea    -0x2f40(%ebx),%eax
    38f6:	89 44 24 0c          	mov    %eax,0xc(%esp)
    38fa:	8d 83 9a cc ff ff    	lea    -0x3366(%ebx),%eax
    3900:	89 44 24 04          	mov    %eax,0x4(%esp)
    3904:	8d 83 64 b8 ff ff    	lea    -0x479c(%ebx),%eax
    390a:	c7 44 24 08 3e 04 00 	movl   $0x43e,0x8(%esp)
    3911:	00 
    3912:	89 04 24             	mov    %eax,(%esp)
    3915:	e8 46 11 01 00       	call   14a60 <_dl_make_stack_executable+0x3220>
    391a:	8d 83 c0 d0 ff ff    	lea    -0x2f40(%ebx),%eax
    3920:	89 44 24 0c          	mov    %eax,0xc(%esp)
    3924:	8d 83 9a cc ff ff    	lea    -0x3366(%ebx),%eax
    392a:	89 44 24 04          	mov    %eax,0x4(%esp)
    392e:	8d 83 f0 b8 ff ff    	lea    -0x4710(%ebx),%eax
    3934:	c7 44 24 08 e9 04 00 	movl   $0x4e9,0x8(%esp)
    393b:	00 
    393c:	89 04 24             	mov    %eax,(%esp)
    393f:	e8 1c 11 01 00       	call   14a60 <_dl_make_stack_executable+0x3220>
    3944:	8d 83 7c b9 ff ff    	lea    -0x4684(%ebx),%eax
    394a:	89 44 24 04          	mov    %eax,0x4(%esp)
    394e:	c7 04 24 02 00 00 00 	movl   $0x2,(%esp)
    3955:	e8 96 b9 00 00       	call   f2f0 <_dl_debug_state+0x5e0>
    395a:	c7 04 24 01 00 00 00 	movl   $0x1,(%esp)
    3961:	e8 de 2c 01 00       	call   16644 <calloc+0x1494>
    3966:	8d 83 c0 d0 ff ff    	lea    -0x2f40(%ebx),%eax
    396c:	89 44 24 0c          	mov    %eax,0xc(%esp)
    3970:	8d 83 9a cc ff ff    	lea    -0x3366(%ebx),%eax
    3976:	89 44 24 04          	mov    %eax,0x4(%esp)
    397a:	8d 83 9d ce ff ff    	lea    -0x3163(%ebx),%eax
    3980:	c7 44 24 08 2b 05 00 	movl   $0x52b,0x8(%esp)
    3987:	00 
    3988:	89 04 24             	mov    %eax,(%esp)
    398b:	e8 d0 10 01 00       	call   14a60 <_dl_make_stack_executable+0x3220>
    3990:	8d 83 c0 d0 ff ff    	lea    -0x2f40(%ebx),%eax
    3996:	89 44 24 0c          	mov    %eax,0xc(%esp)
    399a:	8d 83 9a cc ff ff    	lea    -0x3366(%ebx),%eax
    39a0:	89 44 24 04          	mov    %eax,0x4(%esp)
    39a4:	8d 83 75 ce ff ff    	lea    -0x318b(%ebx),%eax
    39aa:	c7 44 24 08 3d 04 00 	movl   $0x43d,0x8(%esp)
    39b1:	00 
    39b2:	89 04 24             	mov    %eax,(%esp)
    39b5:	e8 a6 10 01 00       	call   14a60 <_dl_make_stack_executable+0x3220>
    39ba:	8d 83 c0 d0 ff ff    	lea    -0x2f40(%ebx),%eax
    39c0:	89 44 24 0c          	mov    %eax,0xc(%esp)
    39c4:	8d 83 9a cc ff ff    	lea    -0x3366(%ebx),%eax
    39ca:	89 44 24 04          	mov    %eax,0x4(%esp)
    39ce:	8d 83 c5 ce ff ff    	lea    -0x313b(%ebx),%eax
    39d4:	c7 44 24 08 4f 05 00 	movl   $0x54f,0x8(%esp)
    39db:	00 
    39dc:	89 04 24             	mov    %eax,(%esp)
    39df:	e8 7c 10 01 00       	call   14a60 <_dl_make_stack_executable+0x3220>
    39e4:	8b 40 04             	mov    0x4(%eax),%eax
    39e7:	8d 75 f3             	lea    -0xd(%ebp),%esi
    39ea:	8d 7d e4             	lea    -0x1c(%ebp),%edi
    39ed:	89 85 48 ff ff ff    	mov    %eax,-0xb8(%ebp)
    39f3:	e8 f8 e0 ff ff       	call   1af0 <free@plt+0x1318>
    39f8:	89 85 28 ff ff ff    	mov    %eax,-0xd8(%ebp)
    39fe:	e8 ad e2 ff ff       	call   1cb0 <free@plt+0x14d8>
    3a03:	8d 45 e0             	lea    -0x20(%ebp),%eax
    3a06:	8d 55 d4             	lea    -0x2c(%ebp),%edx
    3a09:	89 85 e0 fe ff ff    	mov    %eax,-0x120(%ebp)
    3a0f:	8d 83 2c 00 00 00    	lea    0x2c(%ebx),%eax
    3a15:	89 b5 d8 fe ff ff    	mov    %esi,-0x128(%ebp)
    3a1b:	8d 8b dc 39 fe ff    	lea    -0x1c624(%ebx),%ecx
    3a21:	89 bd dc fe ff ff    	mov    %edi,-0x124(%ebp)
    3a27:	8d b3 0b cf ff ff    	lea    -0x30f5(%ebx),%esi
    3a2d:	89 95 ec fe ff ff    	mov    %edx,-0x114(%ebp)
    3a33:	8d bb 6c 39 fe ff    	lea    -0x1c694(%ebx),%edi
    3a39:	8d 90 80 02 00 00    	lea    0x280(%eax),%edx
    3a3f:	c7 85 44 ff ff ff 00 	movl   $0x0,-0xbc(%ebp)
    3a46:	00 00 00 
    3a49:	89 8d cc fe ff ff    	mov    %ecx,-0x134(%ebp)
    3a4f:	89 b5 8c fe ff ff    	mov    %esi,-0x174(%ebp)
    3a55:	89 bd 88 fe ff ff    	mov    %edi,-0x178(%ebp)
    3a5b:	89 85 84 fe ff ff    	mov    %eax,-0x17c(%ebp)
    3a61:	89 95 80 fe ff ff    	mov    %edx,-0x180(%ebp)
    3a67:	8b 8d 48 ff ff ff    	mov    -0xb8(%ebp),%ecx
    3a6d:	8b bb 94 05 00 00    	mov    0x594(%ebx),%edi
    3a73:	8b b5 ec fe ff ff    	mov    -0x114(%ebp),%esi
    3a79:	8b 95 e0 fe ff ff    	mov    -0x120(%ebp),%edx
    3a7f:	8b 01                	mov    (%ecx),%eax
    3a81:	8b 8d d8 fe ff ff    	mov    -0x128(%ebp),%ecx
    3a87:	c7 45 d8 00 00 00 00 	movl   $0x0,-0x28(%ebp)
    3a8e:	c7 45 e0 00 00 00 00 	movl   $0x0,-0x20(%ebp)
    3a95:	89 45 d4             	mov    %eax,-0x2c(%ebp)
    3a98:	8b 85 cc fe ff ff    	mov    -0x134(%ebp),%eax
    3a9e:	89 74 24 04          	mov    %esi,0x4(%esp)
    3aa2:	89 04 24             	mov    %eax,(%esp)
    3aa5:	8b 85 dc fe ff ff    	mov    -0x124(%ebp),%eax
    3aab:	e8 20 a5 00 00       	call   dfd0 <_dl_rtld_di_serinfo+0x6cf0>
    3ab0:	8b 45 e0             	mov    -0x20(%ebp),%eax
    3ab3:	83 ec 08             	sub    $0x8,%esp
    3ab6:	85 c0                	test   %eax,%eax
    3ab8:	0f 85 81 00 00 00    	jne    3b3f <free@plt+0x3367>
    3abe:	8b 45 d8             	mov    -0x28(%ebp),%eax
    3ac1:	8d 75 b0             	lea    -0x50(%ebp),%esi
    3ac4:	8b 8d 8c fe ff ff    	mov    -0x174(%ebp),%ecx
    3aca:	8b 95 e0 fe ff ff    	mov    -0x120(%ebp),%edx
    3ad0:	89 b5 f0 fe ff ff    	mov    %esi,-0x110(%ebp)
    3ad6:	89 45 b4             	mov    %eax,-0x4c(%ebp)
    3ad9:	8b 85 88 fe ff ff    	mov    -0x178(%ebp),%eax
    3adf:	89 4d b0             	mov    %ecx,-0x50(%ebp)
    3ae2:	8b 8d d8 fe ff ff    	mov    -0x128(%ebp),%ecx
    3ae8:	89 74 24 04          	mov    %esi,0x4(%esp)
    3aec:	89 04 24             	mov    %eax,(%esp)
    3aef:	8b 85 dc fe ff ff    	mov    -0x124(%ebp),%eax
    3af5:	e8 d6 a4 00 00       	call   dfd0 <_dl_rtld_di_serinfo+0x6cf0>
    3afa:	8b 45 e0             	mov    -0x20(%ebp),%eax
    3afd:	83 ec 08             	sub    $0x8,%esp
    3b00:	85 c0                	test   %eax,%eax
    3b02:	0f 84 c1 01 00 00    	je     3cc9 <free@plt+0x34f1>
    3b08:	8b 45 d8             	mov    -0x28(%ebp),%eax
    3b0b:	8b 70 18             	mov    0x18(%eax),%esi
    3b0e:	89 04 24             	mov    %eax,(%esp)
    3b11:	e8 ea fd 00 00       	call   13900 <_dl_make_stack_executable+0x20c0>
    3b16:	8b 95 84 fe ff ff    	mov    -0x17c(%ebp),%edx
    3b1c:	8d 04 f6             	lea    (%esi,%esi,8),%eax
    3b1f:	8b 14 82             	mov    (%edx,%eax,4),%edx
    3b22:	85 d2                	test   %edx,%edx
    3b24:	0f 85 75 01 00 00    	jne    3c9f <free@plt+0x34c7>
    3b2a:	8b 84 83 30 00 00 00 	mov    0x30(%ebx,%eax,4),%eax
    3b31:	85 c0                	test   %eax,%eax
    3b33:	0f 85 3c 01 00 00    	jne    3c75 <free@plt+0x349d>
    3b39:	89 bb 94 05 00 00    	mov    %edi,0x594(%ebx)
    3b3f:	8b 45 e0             	mov    -0x20(%ebp),%eax
    3b42:	8b 95 48 ff ff ff    	mov    -0xb8(%ebp),%edx
    3b48:	89 44 24 0c          	mov    %eax,0xc(%esp)
    3b4c:	8b 02                	mov    (%edx),%eax
    3b4e:	c7 04 24 02 00 00 00 	movl   $0x2,(%esp)
    3b55:	89 44 24 08          	mov    %eax,0x8(%esp)
    3b59:	8d 83 a4 b9 ff ff    	lea    -0x465c(%ebx),%eax
    3b5f:	89 44 24 04          	mov    %eax,0x4(%esp)
    3b63:	e8 88 b7 00 00       	call   f2f0 <_dl_debug_state+0x5e0>
    3b68:	80 7d f3 00          	cmpb   $0x0,-0xd(%ebp)
    3b6c:	74 0b                	je     3b79 <free@plt+0x33a1>
    3b6e:	8b 45 e0             	mov    -0x20(%ebp),%eax
    3b71:	89 04 24             	mov    %eax,(%esp)
    3b74:	e8 5f cc ff ff       	call   7d8 <free@plt>
    3b79:	8b 8d 48 ff ff ff    	mov    -0xb8(%ebp),%ecx
    3b7f:	8b 83 d4 05 00 00    	mov    0x5d4(%ebx),%eax
    3b85:	8b 49 04             	mov    0x4(%ecx),%ecx
    3b88:	39 48 04             	cmp    %ecx,0x4(%eax)
    3b8b:	89 8d 48 ff ff ff    	mov    %ecx,-0xb8(%ebp)
    3b91:	0f 85 d0 fe ff ff    	jne    3a67 <free@plt+0x328f>
    3b97:	8b 83 8c fe ff ff    	mov    -0x174(%ebx),%eax
    3b9d:	85 c0                	test   %eax,%eax
    3b9f:	0f 84 be ef ff ff    	je     2b63 <free@plt+0x238b>
    3ba5:	8b b5 1c ff ff ff    	mov    -0xe4(%ebp),%esi
    3bab:	8d 55 cc             	lea    -0x34(%ebp),%edx
    3bae:	8b bd d4 fe ff ff    	mov    -0x12c(%ebp),%edi
    3bb4:	89 55 84             	mov    %edx,-0x7c(%ebp)
    3bb7:	89 75 cc             	mov    %esi,-0x34(%ebp)
    3bba:	89 7d d0             	mov    %edi,-0x30(%ebp)
    3bbd:	8b 8b 88 fe ff ff    	mov    -0x178(%ebx),%ecx
    3bc3:	85 c0                	test   %eax,%eax
    3bc5:	89 8d 4c ff ff ff    	mov    %ecx,-0xb4(%ebp)
    3bcb:	0f 84 86 00 00 00    	je     3c57 <free@plt+0x347f>
    3bd1:	c7 85 50 ff ff ff 00 	movl   $0x0,-0xb0(%ebp)
    3bd8:	00 00 00 
    3bdb:	8b b5 4c ff ff ff    	mov    -0xb4(%ebp),%esi
    3be1:	8b 56 08             	mov    0x8(%esi),%edx
    3be4:	85 d2                	test   %edx,%edx
    3be6:	74 4b                	je     3c33 <free@plt+0x345b>
    3be8:	8b 7d 84             	mov    -0x7c(%ebp),%edi
    3beb:	8b 37                	mov    (%edi),%esi
    3bed:	8b bd 50 ff ff ff    	mov    -0xb0(%ebp),%edi
    3bf3:	c7 44 24 04 00 00 00 	movl   $0x0,0x4(%esp)
    3bfa:	00 
    3bfb:	89 34 24             	mov    %esi,(%esp)
    3bfe:	83 c7 4a             	add    $0x4a,%edi
    3c01:	8d 44 fe 04          	lea    0x4(%esi,%edi,8),%eax
    3c05:	89 44 24 08          	mov    %eax,0x8(%esp)
    3c09:	ff d2                	call   *%edx
    3c0b:	89 44 fe 08          	mov    %eax,0x8(%esi,%edi,8)
    3c0f:	0f b6 96 95 01 00 00 	movzbl 0x195(%esi),%edx
    3c16:	85 c0                	test   %eax,%eax
    3c18:	0f 95 c1             	setne  %cl
    3c1b:	89 d0                	mov    %edx,%eax
    3c1d:	83 e2 df             	and    $0xffffffdf,%edx
    3c20:	c0 e8 05             	shr    $0x5,%al
    3c23:	83 e0 01             	and    $0x1,%eax
    3c26:	09 c1                	or     %eax,%ecx
    3c28:	c1 e1 05             	shl    $0x5,%ecx
    3c2b:	09 ca                	or     %ecx,%edx
    3c2d:	88 96 95 01 00 00    	mov    %dl,0x195(%esi)
    3c33:	8b 85 4c ff ff ff    	mov    -0xb4(%ebp),%eax
    3c39:	83 85 50 ff ff ff 01 	addl   $0x1,-0xb0(%ebp)
    3c40:	8b 95 50 ff ff ff    	mov    -0xb0(%ebp),%edx
    3c46:	39 93 8c fe ff ff    	cmp    %edx,-0x174(%ebx)
    3c4c:	8b 40 20             	mov    0x20(%eax),%eax
    3c4f:	89 85 4c ff ff ff    	mov    %eax,-0xb4(%ebp)
    3c55:	77 84                	ja     3bdb <free@plt+0x3403>
    3c57:	83 45 84 04          	addl   $0x4,-0x7c(%ebp)
    3c5b:	8b 8d ec fe ff ff    	mov    -0x114(%ebp),%ecx
    3c61:	39 4d 84             	cmp    %ecx,-0x7c(%ebp)
    3c64:	0f 84 f9 ee ff ff    	je     2b63 <free@plt+0x238b>
    3c6a:	8b 83 8c fe ff ff    	mov    -0x174(%ebx),%eax
    3c70:	e9 48 ff ff ff       	jmp    3bbd <free@plt+0x33e5>
    3c75:	8d 83 c0 d0 ff ff    	lea    -0x2f40(%ebx),%eax
    3c7b:	89 44 24 0c          	mov    %eax,0xc(%esp)
    3c7f:	8d 83 9a cc ff ff    	lea    -0x3366(%ebx),%eax
    3c85:	89 44 24 04          	mov    %eax,0x4(%esp)
    3c89:	8d 83 28 ba ff ff    	lea    -0x45d8(%ebx),%eax
    3c8f:	c7 44 24 08 21 06 00 	movl   $0x621,0x8(%esp)
    3c96:	00 
    3c97:	89 04 24             	mov    %eax,(%esp)
    3c9a:	e8 c1 0d 01 00       	call   14a60 <_dl_make_stack_executable+0x3220>
    3c9f:	8d 83 c0 d0 ff ff    	lea    -0x2f40(%ebx),%eax
    3ca5:	89 44 24 0c          	mov    %eax,0xc(%esp)
    3ca9:	8d 83 9a cc ff ff    	lea    -0x3366(%ebx),%eax
    3caf:	89 44 24 04          	mov    %eax,0x4(%esp)
    3cb3:	8d 83 f4 b9 ff ff    	lea    -0x460c(%ebx),%eax
    3cb9:	c7 44 24 08 20 06 00 	movl   $0x620,0x8(%esp)
    3cc0:	00 
    3cc1:	89 04 24             	mov    %eax,(%esp)
    3cc4:	e8 97 0d 01 00       	call   14a60 <_dl_make_stack_executable+0x3220>
    3cc9:	8b 45 b8             	mov    -0x48(%ebp),%eax
    3ccc:	85 c0                	test   %eax,%eax
    3cce:	0f 84 34 fe ff ff    	je     3b08 <free@plt+0x3330>
    3cd4:	c7 04 24 01 00 00 00 	movl   $0x1,(%esp)
    3cdb:	ff d0                	call   *%eax
    3cdd:	85 c0                	test   %eax,%eax
    3cdf:	90                   	nop    
    3ce0:	0f 84 22 fe ff ff    	je     3b08 <free@plt+0x3330>
    3ce6:	83 f8 01             	cmp    $0x1,%eax
    3ce9:	8d b4 26 00 00 00 00 	lea    0x0(%esi,%eiz,1),%esi
    3cf0:	0f 87 12 fe ff ff    	ja     3b08 <free@plt+0x3330>
    3cf6:	c7 04 24 24 00 00 00 	movl   $0x24,(%esp)
    3cfd:	31 f6                	xor    %esi,%esi
    3cff:	e8 94 ca ff ff       	call   798 <malloc@plt>
    3d04:	8d bb cc a1 ff ff    	lea    -0x5e34(%ebx),%edi
    3d0a:	89 85 08 ff ff ff    	mov    %eax,-0xf8(%ebp)
    3d10:	8b 95 f0 fe ff ff    	mov    -0x110(%ebp),%edx
    3d16:	8b 8d 88 fe ff ff    	mov    -0x178(%ebp),%ecx
    3d1c:	8b 85 dc fe ff ff    	mov    -0x124(%ebp),%eax
    3d22:	89 7d b0             	mov    %edi,-0x50(%ebp)
    3d25:	89 54 24 04          	mov    %edx,0x4(%esp)
    3d29:	8b 95 e0 fe ff ff    	mov    -0x120(%ebp),%edx
    3d2f:	89 0c 24             	mov    %ecx,(%esp)
    3d32:	8b 8d d8 fe ff ff    	mov    -0x128(%ebp),%ecx
    3d38:	e8 93 a2 00 00       	call   dfd0 <_dl_rtld_di_serinfo+0x6cf0>
    3d3d:	8b 45 e0             	mov    -0x20(%ebp),%eax
    3d40:	83 ec 08             	sub    $0x8,%esp
    3d43:	85 c0                	test   %eax,%eax
    3d45:	74 76                	je     3dbd <free@plt+0x35e5>
    3d47:	8b 95 08 ff ff ff    	mov    -0xf8(%ebp),%edx
    3d4d:	c7 04 b2 00 00 00 00 	movl   $0x0,(%edx,%esi,4)
    3d54:	89 3c 24             	mov    %edi,(%esp)
    3d57:	83 c6 01             	add    $0x1,%esi
    3d5a:	c7 44 24 04 00 00 00 	movl   $0x0,0x4(%esp)
    3d61:	00 
    3d62:	e8 b9 31 01 00       	call   16f20 <calloc+0x1d70>
    3d67:	80 78 01 00          	cmpb   $0x0,0x1(%eax)
    3d6b:	8d 78 01             	lea    0x1(%eax),%edi
    3d6e:	75 a0                	jne    3d10 <free@plt+0x3538>
    3d70:	83 fe 08             	cmp    $0x8,%esi
    3d73:	75 78                	jne    3ded <free@plt+0x3615>
    3d75:	8b 8d 08 ff ff ff    	mov    -0xf8(%ebp),%ecx
    3d7b:	c7 41 20 00 00 00 00 	movl   $0x0,0x20(%ecx)
    3d82:	8b b5 44 ff ff ff    	mov    -0xbc(%ebp),%esi
    3d88:	85 f6                	test   %esi,%esi
    3d8a:	74 59                	je     3de5 <free@plt+0x360d>
    3d8c:	8b bd 08 ff ff ff    	mov    -0xf8(%ebp),%edi
    3d92:	8b b5 44 ff ff ff    	mov    -0xbc(%ebp),%esi
    3d98:	89 7e 20             	mov    %edi,0x20(%esi)
    3d9b:	8b 45 d8             	mov    -0x28(%ebp),%eax
    3d9e:	83 83 8c fe ff ff 01 	addl   $0x1,-0x174(%ebx)
    3da5:	80 88 95 01 00 00 10 	orb    $0x10,0x195(%eax)
    3dac:	8b 85 08 ff ff ff    	mov    -0xf8(%ebp),%eax
    3db2:	89 85 44 ff ff ff    	mov    %eax,-0xbc(%ebp)
    3db8:	e9 bc fd ff ff       	jmp    3b79 <free@plt+0x33a1>
    3dbd:	8b 45 b8             	mov    -0x48(%ebp),%eax
    3dc0:	85 c0                	test   %eax,%eax
    3dc2:	74 83                	je     3d47 <free@plt+0x356f>
    3dc4:	8b 95 08 ff ff ff    	mov    -0xf8(%ebp),%edx
    3dca:	89 04 b2             	mov    %eax,(%edx,%esi,4)
    3dcd:	8b 85 80 fe ff ff    	mov    -0x180(%ebp),%eax
    3dd3:	8b 8d 84 fe ff ff    	mov    -0x17c(%ebp),%ecx
    3dd9:	89 84 f1 d4 04 00 00 	mov    %eax,0x4d4(%ecx,%esi,8)
    3de0:	e9 6f ff ff ff       	jmp    3d54 <free@plt+0x357c>
    3de5:	89 8b 88 fe ff ff    	mov    %ecx,-0x178(%ebx)
    3deb:	eb ae                	jmp    3d9b <free@plt+0x35c3>
    3ded:	8d 83 c0 d0 ff ff    	lea    -0x2f40(%ebx),%eax
    3df3:	89 44 24 0c          	mov    %eax,0xc(%esp)
    3df7:	8d 83 9a cc ff ff    	lea    -0x3366(%ebx),%eax
    3dfd:	89 44 24 04          	mov    %eax,0x4(%esp)
    3e01:	8d 83 16 cf ff ff    	lea    -0x30ea(%ebx),%eax
    3e07:	c7 44 24 08 08 06 00 	movl   $0x608,0x8(%esp)
    3e0e:	00 
    3e0f:	89 04 24             	mov    %eax,(%esp)
    3e12:	e8 49 0c 01 00       	call   14a60 <_dl_make_stack_executable+0x3220>
    3e17:	c6 01 00             	movb   $0x0,(%ecx)
    3e1a:	31 f6                	xor    %esi,%esi
    3e1c:	e9 22 f8 ff ff       	jmp    3643 <free@plt+0x2e6b>
    3e21:	85 f6                	test   %esi,%esi
    3e23:	74 54                	je     3e79 <free@plt+0x36a1>
    3e25:	8b 85 20 ff ff ff    	mov    -0xe0(%ebp),%eax
    3e2b:	89 34 24             	mov    %esi,(%esp)
    3e2e:	29 f0                	sub    %esi,%eax
    3e30:	03 45 e8             	add    -0x18(%ebp),%eax
    3e33:	89 44 24 04          	mov    %eax,0x4(%esp)
    3e37:	e8 94 2c 01 00       	call   16ad0 <calloc+0x1920>
    3e3c:	8d 50 13             	lea    0x13(%eax),%edx
    3e3f:	83 e2 fc             	and    $0xfffffffc,%edx
    3e42:	29 d4                	sub    %edx,%esp
    3e44:	8d 54 24 2f          	lea    0x2f(%esp),%edx
    3e48:	83 e2 f0             	and    $0xfffffff0,%edx
    3e4b:	c6 04 02 00          	movb   $0x0,(%edx,%eax,1)
    3e4f:	89 14 24             	mov    %edx,(%esp)
    3e52:	89 44 24 08          	mov    %eax,0x8(%esp)
    3e56:	89 74 24 04          	mov    %esi,0x4(%esp)
    3e5a:	e8 71 30 01 00       	call   16ed0 <calloc+0x1d20>
    3e5f:	8b 95 e4 fe ff ff    	mov    -0x11c(%ebp),%edx
    3e65:	89 14 24             	mov    %edx,(%esp)
    3e68:	8b 95 1c ff ff ff    	mov    -0xe4(%ebp),%edx
    3e6e:	e8 ad d0 ff ff       	call   f20 <free@plt+0x748>
    3e73:	01 85 34 ff ff ff    	add    %eax,-0xcc(%ebp)
    3e79:	8b 45 e8             	mov    -0x18(%ebp),%eax
    3e7c:	8b 8d 20 ff ff ff    	mov    -0xe0(%ebp),%ecx
    3e82:	89 44 24 04          	mov    %eax,0x4(%esp)
    3e86:	89 0c 24             	mov    %ecx,(%esp)
    3e89:	e8 02 27 01 00       	call   16590 <calloc+0x13e0>
    3e8e:	e9 65 ed ff ff       	jmp    2bf8 <free@plt+0x2420>
    3e93:	8d 83 c0 d0 ff ff    	lea    -0x2f40(%ebx),%eax
    3e99:	89 44 24 0c          	mov    %eax,0xc(%esp)
    3e9d:	8d 83 9a cc ff ff    	lea    -0x3366(%ebx),%eax
    3ea3:	89 44 24 04          	mov    %eax,0x4(%esp)
    3ea7:	8d 83 14 bb ff ff    	lea    -0x44ec(%ebx),%eax
    3ead:	c7 44 24 08 32 08 00 	movl   $0x832,0x8(%esp)
    3eb4:	00 
    3eb5:	89 04 24             	mov    %eax,(%esp)
    3eb8:	e8 a3 0b 01 00       	call   14a60 <_dl_make_stack_executable+0x3220>
    3ebd:	e8 4e c0 00 00       	call   ff10 <_dl_mcount+0x240>
    3ec2:	c6 85 26 ff ff ff 00 	movb   $0x0,-0xda(%ebp)
    3ec9:	e9 c2 f3 ff ff       	jmp    3290 <free@plt+0x2ab8>
    3ece:	8d 83 c0 d0 ff ff    	lea    -0x2f40(%ebx),%eax
    3ed4:	89 44 24 0c          	mov    %eax,0xc(%esp)
    3ed8:	8d 83 9a cc ff ff    	lea    -0x3366(%ebx),%eax
    3ede:	89 44 24 04          	mov    %eax,0x4(%esp)
    3ee2:	8d 83 68 bb ff ff    	lea    -0x4498(%ebx),%eax
    3ee8:	c7 44 24 08 73 08 00 	movl   $0x873,0x8(%esp)
    3eef:	00 
    3ef0:	89 04 24             	mov    %eax,(%esp)
    3ef3:	e8 68 0b 01 00       	call   14a60 <_dl_make_stack_executable+0x3220>
    3ef8:	80 bd 26 ff ff ff 00 	cmpb   $0x0,-0xda(%ebp)
    3eff:	8d 83 48 d0 ff ff    	lea    -0x2fb8(%ebx),%eax
    3f05:	75 06                	jne    3f0d <free@plt+0x3735>
    3f07:	8d 83 41 d0 ff ff    	lea    -0x2fbf(%ebx),%eax
    3f0d:	89 44 24 04          	mov    %eax,0x4(%esp)
    3f11:	8d 83 4b d0 ff ff    	lea    -0x2fb5(%ebx),%eax
    3f17:	89 04 24             	mov    %eax,(%esp)
    3f1a:	e8 31 b4 00 00       	call   f350 <_dl_debug_state+0x640>
    3f1f:	e9 48 f1 ff ff       	jmp    306c <free@plt+0x2894>
    3f24:	8d 83 f4 ce ff ff    	lea    -0x310c(%ebx),%eax
    3f2a:	e9 1b fa ff ff       	jmp    394a <free@plt+0x3172>
    3f2f:	8d 83 9a ce ff ff    	lea    -0x3166(%ebx),%eax
    3f35:	89 44 24 04          	mov    %eax,0x4(%esp)
    3f39:	c7 04 24 01 00 00 00 	movl   $0x1,(%esp)
    3f40:	e8 ab b3 00 00       	call   f2f0 <_dl_debug_state+0x5e0>
    3f45:	80 bd 25 ff ff ff 01 	cmpb   $0x1,-0xdb(%ebp)
    3f4c:	19 c0                	sbb    %eax,%eax
    3f4e:	83 e0 02             	and    $0x2,%eax
    3f51:	89 04 24             	mov    %eax,(%esp)
    3f54:	e8 eb 26 01 00       	call   16644 <calloc+0x1494>
    3f59:	e9 83 e4 ff ff       	jmp    23e1 <free@plt+0x1c09>
    3f5e:	8d 83 c0 d0 ff ff    	lea    -0x2f40(%ebx),%eax
    3f64:	89 44 24 0c          	mov    %eax,0xc(%esp)
    3f68:	8d 83 9a cc ff ff    	lea    -0x3366(%ebx),%eax
    3f6e:	89 44 24 04          	mov    %eax,0x4(%esp)
    3f72:	8d 83 50 ba ff ff    	lea    -0x45b0(%ebx),%eax
    3f78:	c7 44 24 08 25 07 00 	movl   $0x725,0x8(%esp)
    3f7f:	00 
    3f80:	89 04 24             	mov    %eax,(%esp)
    3f83:	e8 d8 0a 01 00       	call   14a60 <_dl_make_stack_executable+0x3220>
    3f88:	39 c6                	cmp    %eax,%esi
    3f8a:	0f 84 9e ef ff ff    	je     2f2e <free@plt+0x2756>
    3f90:	89 83 bc 02 00 00    	mov    %eax,0x2bc(%ebx)
    3f96:	8b 50 0c             	mov    0xc(%eax),%edx
    3f99:	e9 82 ef ff ff       	jmp    2f20 <free@plt+0x2748>
    3f9e:	8b 42 0c             	mov    0xc(%edx),%eax
    3fa1:	89 83 b8 02 00 00    	mov    %eax,0x2b8(%ebx)
    3fa7:	89 d0                	mov    %edx,%eax
    3fa9:	8b 52 0c             	mov    0xc(%edx),%edx
    3fac:	e9 6f ef ff ff       	jmp    2f20 <free@plt+0x2748>
    3fb1:	8b 83 ac fc ff ff    	mov    -0x354(%ebx),%eax
    3fb7:	8d 75 f3             	lea    -0xd(%ebp),%esi
    3fba:	c7 45 e4 00 00 00 00 	movl   $0x0,-0x1c(%ebp)
    3fc1:	8d 7d e4             	lea    -0x1c(%ebp),%edi
    3fc4:	89 f1                	mov    %esi,%ecx
    3fc6:	89 fa                	mov    %edi,%edx
    3fc8:	c7 45 90 00 00 00 00 	movl   $0x0,-0x70(%ebp)
    3fcf:	8b 00                	mov    (%eax),%eax
    3fd1:	c7 45 94 00 00 00 00 	movl   $0x0,-0x6c(%ebp)
    3fd8:	c7 45 98 00 00 00 20 	movl   $0x20000000,-0x68(%ebp)
    3fdf:	89 45 8c             	mov    %eax,-0x74(%ebp)
    3fe2:	8d 45 e0             	lea    -0x20(%ebp),%eax
    3fe5:	89 85 e0 fe ff ff    	mov    %eax,-0x120(%ebp)
    3feb:	8d 45 8c             	lea    -0x74(%ebp),%eax
    3fee:	89 44 24 04          	mov    %eax,0x4(%esp)
    3ff2:	8d 83 9c 40 fe ff    	lea    -0x1bf64(%ebx),%eax
    3ff8:	89 04 24             	mov    %eax,(%esp)
    3ffb:	8b 85 e0 fe ff ff    	mov    -0x120(%ebp),%eax
    4001:	e8 ca 9f 00 00       	call   dfd0 <_dl_rtld_di_serinfo+0x6cf0>
    4006:	8b 75 e4             	mov    -0x1c(%ebp),%esi
    4009:	83 ec 08             	sub    $0x8,%esp
    400c:	85 f6                	test   %esi,%esi
    400e:	0f 84 75 ee ff ff    	je     2e89 <free@plt+0x26b1>
    4014:	c7 04 24 01 00 00 00 	movl   $0x1,(%esp)
    401b:	e8 24 26 01 00       	call   16644 <calloc+0x1494>
    4020:	e9 64 ee ff ff       	jmp    2e89 <free@plt+0x26b1>
    4025:	8d 76 00             	lea    0x0(%esi),%esi
    4028:	e8 c3 da ff ff       	call   1af0 <free@plt+0x1318>
    402d:	89 85 28 ff ff ff    	mov    %eax,-0xd8(%ebp)
    4033:	90                   	nop    
    4034:	8d 74 26 00          	lea    0x0(%esi,%eiz,1),%esi
    4038:	e9 71 ef ff ff       	jmp    2fae <free@plt+0x27d6>
    403d:	8b 83 cc fc ff ff    	mov    -0x334(%ebx),%eax
    4043:	f6 c4 04             	test   $0x4,%ah
    4046:	0f 84 d6 01 00 00    	je     4222 <free@plt+0x3a4a>
    404c:	8b 95 1c ff ff ff    	mov    -0xe4(%ebp),%edx
    4052:	8b b2 60 01 00 00    	mov    0x160(%edx),%esi
    4058:	85 f6                	test   %esi,%esi
    405a:	74 7a                	je     40d6 <free@plt+0x38fe>
    405c:	8d 8b 71 cf ff ff    	lea    -0x308f(%ebx),%ecx
    4062:	31 ff                	xor    %edi,%edi
    4064:	8d b3 4e cf ff ff    	lea    -0x30b2(%ebx),%esi
    406a:	8d 83 8e cf ff ff    	lea    -0x3072(%ebx),%eax
    4070:	8d 93 e5 cc ff ff    	lea    -0x331b(%ebx),%edx
    4076:	89 8d b4 fe ff ff    	mov    %ecx,-0x14c(%ebp)
    407c:	89 b5 b0 fe ff ff    	mov    %esi,-0x150(%ebp)
    4082:	89 85 ac fe ff ff    	mov    %eax,-0x154(%ebp)
    4088:	89 95 a8 fe ff ff    	mov    %edx,-0x158(%ebp)
    408e:	8b 8d 1c ff ff ff    	mov    -0xe4(%ebp),%ecx
    4094:	8b 81 5c 01 00 00    	mov    0x15c(%ecx),%eax
    409a:	8b 34 b8             	mov    (%eax,%edi,4),%esi
    409d:	f6 86 95 01 00 00 02 	testb  $0x2,0x195(%esi)
    40a4:	74 6e                	je     4114 <free@plt+0x393c>
    40a6:	8b 46 1c             	mov    0x1c(%esi),%eax
    40a9:	8b 00                	mov    (%eax),%eax
    40ab:	c7 04 24 01 00 00 00 	movl   $0x1,(%esp)
    40b2:	89 44 24 08          	mov    %eax,0x8(%esp)
    40b6:	8d 83 5f cf ff ff    	lea    -0x30a1(%ebx),%eax
    40bc:	89 44 24 04          	mov    %eax,0x4(%esp)
    40c0:	e8 2b b2 00 00       	call   f2f0 <_dl_debug_state+0x5e0>
    40c5:	8b b5 1c ff ff ff    	mov    -0xe4(%ebp),%esi
    40cb:	83 c7 01             	add    $0x1,%edi
    40ce:	39 be 60 01 00 00    	cmp    %edi,0x160(%esi)
    40d4:	77 b8                	ja     408e <free@plt+0x38b6>
    40d6:	83 7d ec 03          	cmpl   $0x3,-0x14(%ebp)
    40da:	0f 85 61 06 00 00    	jne    4741 <free@plt+0x3f69>
    40e0:	8b 83 f4 fc ff ff    	mov    -0x30c(%ebx),%eax
    40e6:	85 c0                	test   %eax,%eax
    40e8:	0f 88 ae 03 00 00    	js     449c <free@plt+0x3cc4>
    40ee:	8b 93 ec fc ff ff    	mov    -0x314(%ebx),%edx
    40f4:	85 d2                	test   %edx,%edx
    40f6:	0f 84 a0 03 00 00    	je     449c <free@plt+0x3cc4>
    40fc:	8b b5 1c ff ff ff    	mov    -0xe4(%ebp),%esi
    4102:	89 45 c0             	mov    %eax,-0x40(%ebp)
    4105:	8b 46 0c             	mov    0xc(%esi),%eax
    4108:	85 c0                	test   %eax,%eax
    410a:	0f 84 14 03 00 00    	je     4424 <free@plt+0x3c4c>
    4110:	89 c6                	mov    %eax,%esi
    4112:	eb f1                	jmp    4105 <free@plt+0x392d>
    4114:	8b 83 40 fe ff ff    	mov    -0x1c0(%ebx),%eax
    411a:	89 f2                	mov    %esi,%edx
    411c:	e8 ff ab 00 00       	call   ed20 <_dl_debug_state+0x10>
    4121:	85 c0                	test   %eax,%eax
    4123:	74 06                	je     412b <free@plt+0x3953>
    4125:	89 b3 44 fe ff ff    	mov    %esi,-0x1bc(%ebx)
    412b:	8b 06                	mov    (%esi),%eax
    412d:	8b 96 ac 01 00 00    	mov    0x1ac(%esi),%edx
    4133:	89 85 14 ff ff ff    	mov    %eax,-0xec(%ebp)
    4139:	8b 46 04             	mov    0x4(%esi),%eax
    413c:	89 95 6c fe ff ff    	mov    %edx,-0x194(%ebp)
    4142:	80 38 00             	cmpb   $0x0,(%eax)
    4145:	89 c2                	mov    %eax,%edx
    4147:	75 12                	jne    415b <free@plt+0x3983>
    4149:	8b 83 ac fc ff ff    	mov    -0x354(%ebx),%eax
    414f:	8b 10                	mov    (%eax),%edx
    4151:	85 d2                	test   %edx,%edx
    4153:	75 06                	jne    415b <free@plt+0x3983>
    4155:	8b 95 a8 fe ff ff    	mov    -0x158(%ebp),%edx
    415b:	8b 46 1c             	mov    0x1c(%esi),%eax
    415e:	8b 00                	mov    (%eax),%eax
    4160:	80 38 00             	cmpb   $0x0,(%eax)
    4163:	75 12                	jne    4177 <free@plt+0x399f>
    4165:	8b 83 ac fc ff ff    	mov    -0x354(%ebx),%eax
    416b:	8b 00                	mov    (%eax),%eax
    416d:	85 c0                	test   %eax,%eax
    416f:	75 06                	jne    4177 <free@plt+0x399f>
    4171:	8b 85 a8 fe ff ff    	mov    -0x158(%ebp),%eax
    4177:	8b 8d 14 ff ff ff    	mov    -0xec(%ebp),%ecx
    417d:	89 44 24 08          	mov    %eax,0x8(%esp)
    4181:	8b 85 b4 fe ff ff    	mov    -0x14c(%ebp),%eax
    4187:	89 54 24 0c          	mov    %edx,0xc(%esp)
    418b:	c7 44 24 18 08 00 00 	movl   $0x8,0x18(%esp)
    4192:	00 
    4193:	89 4c 24 1c          	mov    %ecx,0x1c(%esp)
    4197:	8b 8d 6c fe ff ff    	mov    -0x194(%ebp),%ecx
    419d:	c7 44 24 10 08 00 00 	movl   $0x8,0x10(%esp)
    41a4:	00 
    41a5:	89 44 24 04          	mov    %eax,0x4(%esp)
    41a9:	c7 04 24 01 00 00 00 	movl   $0x1,(%esp)
    41b0:	89 4c 24 14          	mov    %ecx,0x14(%esp)
    41b4:	e8 37 b1 00 00       	call   f2f0 <_dl_debug_state+0x5e0>
    41b9:	8b 96 40 02 00 00    	mov    0x240(%esi),%edx
    41bf:	85 d2                	test   %edx,%edx
    41c1:	0f 84 de 00 00 00    	je     42a5 <free@plt+0x3acd>
    41c7:	8b 86 3c 02 00 00    	mov    0x23c(%esi),%eax
    41cd:	89 54 24 08          	mov    %edx,0x8(%esp)
    41d1:	8b 95 ac fe ff ff    	mov    -0x154(%ebp),%edx
    41d7:	c7 44 24 0c 08 00 00 	movl   $0x8,0xc(%esp)
    41de:	00 
    41df:	c7 04 24 01 00 00 00 	movl   $0x1,(%esp)
    41e6:	89 44 24 10          	mov    %eax,0x10(%esp)
    41ea:	89 54 24 04          	mov    %edx,0x4(%esp)
    41ee:	e8 fd b0 00 00       	call   f2f0 <_dl_debug_state+0x5e0>
    41f3:	e9 cd fe ff ff       	jmp    40c5 <free@plt+0x38ed>
    41f8:	8d 83 c0 d0 ff ff    	lea    -0x2f40(%ebx),%eax
    41fe:	89 44 24 0c          	mov    %eax,0xc(%esp)
    4202:	8d 83 9a cc ff ff    	lea    -0x3366(%ebx),%eax
    4208:	89 44 24 04          	mov    %eax,0x4(%esp)
    420c:	8d 83 9c ba ff ff    	lea    -0x4564(%ebx),%eax
    4212:	c7 44 24 08 29 07 00 	movl   $0x729,0x8(%esp)
    4219:	00 
    421a:	89 04 24             	mov    %eax,(%esp)
    421d:	e8 3e 08 01 00       	call   14a60 <_dl_make_stack_executable+0x3220>
    4222:	f6 c4 01             	test   $0x1,%ah
    4225:	0f 85 00 01 00 00    	jne    432b <free@plt+0x3b53>
    422b:	8b 8d 1c ff ff ff    	mov    -0xe4(%ebp),%ecx
    4231:	8b 49 24             	mov    0x24(%ecx),%ecx
    4234:	85 c9                	test   %ecx,%ecx
    4236:	0f 84 d4 00 00 00    	je     4310 <free@plt+0x3b38>
    423c:	8b bd 1c ff ff ff    	mov    -0xe4(%ebp),%edi
    4242:	8b 77 0c             	mov    0xc(%edi),%esi
    4245:	85 f6                	test   %esi,%esi
    4247:	0f 84 89 fe ff ff    	je     40d6 <free@plt+0x38fe>
    424d:	8d 83 5f cf ff ff    	lea    -0x30a1(%ebx),%eax
    4253:	8d 93 e9 cf ff ff    	lea    -0x3017(%ebx),%edx
    4259:	8d 8b da cf ff ff    	lea    -0x3026(%ebx),%ecx
    425f:	89 85 9c fe ff ff    	mov    %eax,-0x164(%ebp)
    4265:	89 95 98 fe ff ff    	mov    %edx,-0x168(%ebp)
    426b:	89 8d 94 fe ff ff    	mov    %ecx,-0x16c(%ebp)
    4271:	f6 86 95 01 00 00 02 	testb  $0x2,0x195(%esi)
    4278:	74 46                	je     42c0 <free@plt+0x3ae8>
    427a:	8b 46 1c             	mov    0x1c(%esi),%eax
    427d:	8b bd 9c fe ff ff    	mov    -0x164(%ebp),%edi
    4283:	8b 00                	mov    (%eax),%eax
    4285:	89 7c 24 04          	mov    %edi,0x4(%esp)
    4289:	c7 04 24 01 00 00 00 	movl   $0x1,(%esp)
    4290:	89 44 24 08          	mov    %eax,0x8(%esp)
    4294:	e8 57 b0 00 00       	call   f2f0 <_dl_debug_state+0x5e0>
    4299:	8b 76 0c             	mov    0xc(%esi),%esi
    429c:	85 f6                	test   %esi,%esi
    429e:	75 d1                	jne    4271 <free@plt+0x3a99>
    42a0:	e9 31 fe ff ff       	jmp    40d6 <free@plt+0x38fe>
    42a5:	8b 8d b0 fe ff ff    	mov    -0x150(%ebp),%ecx
    42ab:	c7 04 24 01 00 00 00 	movl   $0x1,(%esp)
    42b2:	89 4c 24 04          	mov    %ecx,0x4(%esp)
    42b6:	e8 35 b0 00 00       	call   f2f0 <_dl_debug_state+0x5e0>
    42bb:	e9 05 fe ff ff       	jmp    40c5 <free@plt+0x38ed>
    42c0:	8b 46 04             	mov    0x4(%esi),%eax
    42c3:	89 45 88             	mov    %eax,-0x78(%ebp)
    42c6:	8b 46 1c             	mov    0x1c(%esi),%eax
    42c9:	8b 55 88             	mov    -0x78(%ebp),%edx
    42cc:	8b 38                	mov    (%eax),%edi
    42ce:	89 54 24 04          	mov    %edx,0x4(%esp)
    42d2:	89 3c 24             	mov    %edi,(%esp)
    42d5:	e8 c6 26 01 00       	call   169a0 <calloc+0x17f0>
    42da:	85 c0                	test   %eax,%eax
    42dc:	0f 85 bc 00 00 00    	jne    439e <free@plt+0x3bc6>
    42e2:	8b 86 ac 01 00 00    	mov    0x1ac(%esi),%eax
    42e8:	8b 8d 94 fe ff ff    	mov    -0x16c(%ebp),%ecx
    42ee:	c7 44 24 0c 08 00 00 	movl   $0x8,0xc(%esp)
    42f5:	00 
    42f6:	89 7c 24 08          	mov    %edi,0x8(%esp)
    42fa:	89 44 24 10          	mov    %eax,0x10(%esp)
    42fe:	89 4c 24 04          	mov    %ecx,0x4(%esp)
    4302:	c7 04 24 01 00 00 00 	movl   $0x1,(%esp)
    4309:	e8 e2 af 00 00       	call   f2f0 <_dl_debug_state+0x5e0>
    430e:	eb 89                	jmp    4299 <free@plt+0x3ac1>
    4310:	8d 83 c6 cf ff ff    	lea    -0x303a(%ebx),%eax
    4316:	89 44 24 04          	mov    %eax,0x4(%esp)
    431a:	c7 04 24 01 00 00 00 	movl   $0x1,(%esp)
    4321:	e8 ca af 00 00       	call   f2f0 <_dl_debug_state+0x5e0>
    4326:	e9 ab fd ff ff       	jmp    40d6 <free@plt+0x38fe>
    432b:	8b 83 f4 fc ff ff    	mov    -0x30c(%ebx),%eax
    4331:	8d 93 8c 41 fe ff    	lea    -0x1be74(%ebx),%edx
    4337:	8b bd 1c ff ff ff    	mov    -0xe4(%ebp),%edi
    433d:	8d 4d bc             	lea    -0x44(%ebp),%ecx
    4340:	89 45 c0             	mov    %eax,-0x40(%ebp)
    4343:	8d 83 dc 3f fe ff    	lea    -0x1c024(%ebx),%eax
    4349:	89 7d bc             	mov    %edi,-0x44(%ebp)
    434c:	e8 0f 9c 00 00       	call   df60 <_dl_rtld_di_serinfo+0x6c80>
    4351:	8b 77 08             	mov    0x8(%edi),%esi
    4354:	b8 01 00 00 00       	mov    $0x1,%eax
    4359:	8b bd 1c ff ff ff    	mov    -0xe4(%ebp),%edi
    435f:	8b 16                	mov    (%esi),%edx
    4361:	85 d2                	test   %edx,%edx
    4363:	74 26                	je     438b <free@plt+0x3bb3>
    4365:	8d 8b c1 cf ff ff    	lea    -0x303f(%ebx),%ecx
    436b:	89 8d a4 fe ff ff    	mov    %ecx,-0x15c(%ebp)
    4371:	8d 8b a4 cf ff ff    	lea    -0x305c(%ebx),%ecx
    4377:	89 8d a0 fe ff ff    	mov    %ecx,-0x160(%ebp)
    437d:	83 ea 01             	sub    $0x1,%edx
    4380:	74 54                	je     43d6 <free@plt+0x3bfe>
    4382:	83 c6 08             	add    $0x8,%esi
    4385:	8b 16                	mov    (%esi),%edx
    4387:	85 d2                	test   %edx,%edx
    4389:	75 f2                	jne    437d <free@plt+0x3ba5>
    438b:	83 f0 01             	xor    $0x1,%eax
    438e:	0f b6 c0             	movzbl %al,%eax
    4391:	89 04 24             	mov    %eax,(%esp)
    4394:	e8 ab 22 01 00       	call   16644 <calloc+0x1494>
    4399:	e9 38 fd ff ff       	jmp    40d6 <free@plt+0x38fe>
    439e:	8b 86 ac 01 00 00    	mov    0x1ac(%esi),%eax
    43a4:	8b 95 98 fe ff ff    	mov    -0x168(%ebp),%edx
    43aa:	c7 44 24 10 08 00 00 	movl   $0x8,0x10(%esp)
    43b1:	00 
    43b2:	89 7c 24 08          	mov    %edi,0x8(%esp)
    43b6:	89 44 24 14          	mov    %eax,0x14(%esp)
    43ba:	8b 45 88             	mov    -0x78(%ebp),%eax
    43bd:	89 54 24 04          	mov    %edx,0x4(%esp)
    43c1:	c7 04 24 01 00 00 00 	movl   $0x1,(%esp)
    43c8:	89 44 24 0c          	mov    %eax,0xc(%esp)
    43cc:	e8 1f af 00 00       	call   f2f0 <_dl_debug_state+0x5e0>
    43d1:	e9 c3 fe ff ff       	jmp    4299 <free@plt+0x3ac1>
    43d6:	8b 7f 0c             	mov    0xc(%edi),%edi
    43d9:	f6 87 95 01 00 00 08 	testb  $0x8,0x195(%edi)
    43e0:	75 a0                	jne    4382 <free@plt+0x3baa>
    43e2:	84 c0                	test   %al,%al
    43e4:	8d 74 26 00          	lea    0x0(%esi,%eiz,1),%esi
    43e8:	74 16                	je     4400 <free@plt+0x3c28>
    43ea:	8b 85 a0 fe ff ff    	mov    -0x160(%ebp),%eax
    43f0:	c7 04 24 01 00 00 00 	movl   $0x1,(%esp)
    43f7:	89 44 24 04          	mov    %eax,0x4(%esp)
    43fb:	e8 f0 ae 00 00       	call   f2f0 <_dl_debug_state+0x5e0>
    4400:	8b 47 04             	mov    0x4(%edi),%eax
    4403:	8b 95 a4 fe ff ff    	mov    -0x15c(%ebp),%edx
    4409:	c7 04 24 01 00 00 00 	movl   $0x1,(%esp)
    4410:	89 44 24 08          	mov    %eax,0x8(%esp)
    4414:	89 54 24 04          	mov    %edx,0x4(%esp)
    4418:	e8 d3 ae 00 00       	call   f2f0 <_dl_debug_state+0x5e0>
    441d:	31 c0                	xor    %eax,%eax
    441f:	e9 5e ff ff ff       	jmp    4382 <free@plt+0x3baa>
    4424:	8d 7d bc             	lea    -0x44(%ebp),%edi
    4427:	3b b5 d4 fe ff ff    	cmp    -0x12c(%ebp),%esi
    442d:	74 1f                	je     444e <free@plt+0x3c76>
    442f:	f6 86 95 01 00 00 02 	testb  $0x2,0x195(%esi)
    4436:	75 16                	jne    444e <free@plt+0x3c76>
    4438:	89 f9                	mov    %edi,%ecx
    443a:	8d 93 8c 41 fe ff    	lea    -0x1be74(%ebx),%edx
    4440:	8d 83 dc 3f fe ff    	lea    -0x1c024(%ebx),%eax
    4446:	89 75 bc             	mov    %esi,-0x44(%ebp)
    4449:	e8 12 9b 00 00       	call   df60 <_dl_rtld_di_serinfo+0x6c80>
    444e:	8b 76 10             	mov    0x10(%esi),%esi
    4451:	85 f6                	test   %esi,%esi
    4453:	75 d2                	jne    4427 <free@plt+0x3c4f>
    4455:	f6 83 cd fc ff ff 04 	testb  $0x4,-0x333(%ebx)
    445c:	74 3e                	je     449c <free@plt+0x3cc4>
    445e:	80 bd 3a ff ff ff 00 	cmpb   $0x0,-0xc6(%ebp)
    4465:	74 35                	je     449c <free@plt+0x3cc4>
    4467:	80 a3 40 04 00 00 fb 	andb   $0xfb,0x440(%ebx)
    446e:	8b 95 1c ff ff ff    	mov    -0xe4(%ebp),%edx
    4474:	c7 44 24 0c 00 00 00 	movl   $0x0,0xc(%esp)
    447b:	00 
    447c:	8b 8d d4 fe ff ff    	mov    -0x12c(%ebp),%ecx
    4482:	c7 44 24 08 00 00 00 	movl   $0x0,0x8(%esp)
    4489:	00 
    448a:	8b 82 cc 01 00 00    	mov    0x1cc(%edx),%eax
    4490:	89 0c 24             	mov    %ecx,(%esp)
    4493:	89 44 24 04          	mov    %eax,0x4(%esp)
    4497:	e8 14 61 00 00       	call   a5b0 <_dl_rtld_di_serinfo+0x32d0>
    449c:	8b 83 f4 fe ff ff    	mov    -0x10c(%ebx),%eax
    44a2:	85 c0                	test   %eax,%eax
    44a4:	0f 84 86 02 00 00    	je     4730 <free@plt+0x3f58>
    44aa:	8b b5 1c ff ff ff    	mov    -0xe4(%ebp),%esi
    44b0:	8d bb 16 d0 ff ff    	lea    -0x2fea(%ebx),%edi
    44b6:	b9 01 00 00 00       	mov    $0x1,%ecx
    44bb:	8d 83 2e d0 ff ff    	lea    -0x2fd2(%ebx),%eax
    44c1:	8d 93 1c d0 ff ff    	lea    -0x2fe4(%ebx),%edx
    44c7:	89 bd c4 fe ff ff    	mov    %edi,-0x13c(%ebp)
    44cd:	89 b5 54 ff ff ff    	mov    %esi,-0xac(%ebp)
    44d3:	8d b3 26 d0 ff ff    	lea    -0x2fda(%ebx),%esi
    44d9:	89 85 c0 fe ff ff    	mov    %eax,-0x140(%ebp)
    44df:	89 95 bc fe ff ff    	mov    %edx,-0x144(%ebp)
    44e5:	89 b5 b8 fe ff ff    	mov    %esi,-0x148(%ebp)
    44eb:	8b bd 54 ff ff ff    	mov    -0xac(%ebp),%edi
    44f1:	8b 97 ac 00 00 00    	mov    0xac(%edi),%edx
    44f7:	85 d2                	test   %edx,%edx
    44f9:	0f 84 1a 02 00 00    	je     4719 <free@plt+0x3f41>
    44ff:	8b 47 34             	mov    0x34(%edi),%eax
    4502:	85 c9                	test   %ecx,%ecx
    4504:	8b 3f                	mov    (%edi),%edi
    4506:	8b 40 04             	mov    0x4(%eax),%eax
    4509:	89 85 58 ff ff ff    	mov    %eax,-0xa8(%ebp)
    450f:	8b 72 04             	mov    0x4(%edx),%esi
    4512:	74 16                	je     452a <free@plt+0x3d52>
    4514:	8d 83 fe cf ff ff    	lea    -0x3002(%ebx),%eax
    451a:	89 44 24 04          	mov    %eax,0x4(%esp)
    451e:	c7 04 24 01 00 00 00 	movl   $0x1,(%esp)
    4525:	e8 c6 ad 00 00       	call   f2f0 <_dl_debug_state+0x5e0>
    452a:	8b 95 54 ff ff ff    	mov    -0xac(%ebp),%edx
    4530:	8b 42 04             	mov    0x4(%edx),%eax
    4533:	80 38 00             	cmpb   $0x0,(%eax)
    4536:	75 08                	jne    4540 <free@plt+0x3d68>
    4538:	8b 83 ac fc ff ff    	mov    -0x354(%ebx),%eax
    453e:	8b 00                	mov    (%eax),%eax
    4540:	8b 8d c4 fe ff ff    	mov    -0x13c(%ebp),%ecx
    4546:	8d 3c 3e             	lea    (%esi,%edi,1),%edi
    4549:	8d b3 4f cf ff ff    	lea    -0x30b1(%ebx),%esi
    454f:	89 bd 5c ff ff ff    	mov    %edi,-0xa4(%ebp)
    4555:	89 44 24 08          	mov    %eax,0x8(%esp)
    4559:	89 4c 24 04          	mov    %ecx,0x4(%esp)
    455d:	c7 04 24 01 00 00 00 	movl   $0x1,(%esp)
    4564:	e8 87 ad 00 00       	call   f2f0 <_dl_debug_state+0x5e0>
    4569:	89 b5 c8 fe ff ff    	mov    %esi,-0x138(%ebp)
    456f:	8b bd 5c ff ff ff    	mov    -0xa4(%ebp),%edi
    4575:	8b 93 2c 00 00 00    	mov    0x2c(%ebx),%edx
    457b:	8b 85 58 ff ff ff    	mov    -0xa8(%ebp),%eax
    4581:	03 47 04             	add    0x4(%edi),%eax
    4584:	8b ba 60 01 00 00    	mov    0x160(%edx),%edi
    458a:	89 95 7c ff ff ff    	mov    %edx,-0x84(%ebp)
    4590:	89 85 18 ff ff ff    	mov    %eax,-0xe8(%ebp)
    4596:	85 ff                	test   %edi,%edi
    4598:	8d 34 bd fc ff ff ff 	lea    -0x4(,%edi,4),%esi
    459f:	74 2a                	je     45cb <free@plt+0x3df3>
    45a1:	8b 8d 7c ff ff ff    	mov    -0x84(%ebp),%ecx
    45a7:	83 ef 01             	sub    $0x1,%edi
    45aa:	8b 81 5c 01 00 00    	mov    0x15c(%ecx),%eax
    45b0:	8b 14 30             	mov    (%eax,%esi,1),%edx
    45b3:	8b 85 18 ff ff ff    	mov    -0xe8(%ebp),%eax
    45b9:	e8 62 a7 00 00       	call   ed20 <_dl_debug_state+0x10>
    45be:	8d 56 fc             	lea    -0x4(%esi),%edx
    45c1:	85 c0                	test   %eax,%eax
    45c3:	75 13                	jne    45d8 <free@plt+0x3e00>
    45c5:	85 ff                	test   %edi,%edi
    45c7:	89 d6                	mov    %edx,%esi
    45c9:	75 d6                	jne    45a1 <free@plt+0x3dc9>
    45cb:	c7 85 64 ff ff ff 00 	movl   $0x0,-0x9c(%ebp)
    45d2:	00 00 00 
    45d5:	eb 16                	jmp    45ed <free@plt+0x3e15>
    45d7:	90                   	nop    
    45d8:	8b bd 7c ff ff ff    	mov    -0x84(%ebp),%edi
    45de:	8b 87 5c 01 00 00    	mov    0x15c(%edi),%eax
    45e4:	8b 04 30             	mov    (%eax,%esi,1),%eax
    45e7:	89 85 64 ff ff ff    	mov    %eax,-0x9c(%ebp)
    45ed:	8b 85 5c ff ff ff    	mov    -0xa4(%ebp),%eax
    45f3:	8b bd 64 ff ff ff    	mov    -0x9c(%ebp),%edi
    45f9:	03 40 08             	add    0x8(%eax),%eax
    45fc:	85 ff                	test   %edi,%edi
    45fe:	89 85 60 ff ff ff    	mov    %eax,-0xa0(%ebp)
    4604:	0f 84 d9 00 00 00    	je     46e3 <free@plt+0x3f0b>
    460a:	8b 8d 64 ff ff ff    	mov    -0x9c(%ebp),%ecx
    4610:	8b 95 60 ff ff ff    	mov    -0xa0(%ebp),%edx
    4616:	8b bd 58 ff ff ff    	mov    -0xa8(%ebp),%edi
    461c:	8b 41 34             	mov    0x34(%ecx),%eax
    461f:	03 7a 08             	add    0x8(%edx),%edi
    4622:	8b 40 04             	mov    0x4(%eax),%eax
    4625:	89 45 80             	mov    %eax,-0x80(%ebp)
    4628:	8b 81 b4 00 00 00    	mov    0xb4(%ecx),%eax
    462e:	85 c0                	test   %eax,%eax
    4630:	0f 84 ad 00 00 00    	je     46e3 <free@plt+0x3f0b>
    4636:	8b 31                	mov    (%ecx),%esi
    4638:	03 70 04             	add    0x4(%eax),%esi
    463b:	eb 10                	jmp    464d <free@plt+0x3e75>
    463d:	8d 76 00             	lea    0x0(%esi),%esi
    4640:	8b 46 10             	mov    0x10(%esi),%eax
    4643:	85 c0                	test   %eax,%eax
    4645:	0f 84 98 00 00 00    	je     46e3 <free@plt+0x3f0b>
    464b:	01 c6                	add    %eax,%esi
    464d:	8b 46 0c             	mov    0xc(%esi),%eax
    4650:	8b 04 06             	mov    (%esi,%eax,1),%eax
    4653:	03 45 80             	add    -0x80(%ebp),%eax
    4656:	89 3c 24             	mov    %edi,(%esp)
    4659:	89 44 24 04          	mov    %eax,0x4(%esp)
    465d:	e8 3e 23 01 00       	call   169a0 <calloc+0x17f0>
    4662:	85 c0                	test   %eax,%eax
    4664:	75 da                	jne    4640 <free@plt+0x3e68>
    4666:	8b b5 64 ff ff ff    	mov    -0x9c(%ebp),%esi
    466c:	8b 46 04             	mov    0x4(%esi),%eax
    466f:	85 c0                	test   %eax,%eax
    4671:	74 70                	je     46e3 <free@plt+0x3f0b>
    4673:	8b 8d 60 ff ff ff    	mov    -0xa0(%ebp),%ecx
    4679:	8b 95 b8 fe ff ff    	mov    -0x148(%ebp),%edx
    467f:	f6 41 04 02          	testb  $0x2,0x4(%ecx)
    4683:	75 06                	jne    468b <free@plt+0x3eb3>
    4685:	8b 95 c8 fe ff ff    	mov    -0x138(%ebp),%edx
    468b:	8b b5 5c ff ff ff    	mov    -0xa4(%ebp),%esi
    4691:	89 44 24 14          	mov    %eax,0x14(%esp)
    4695:	8b 85 58 ff ff ff    	mov    -0xa8(%ebp),%eax
    469b:	89 7c 24 0c          	mov    %edi,0xc(%esp)
    469f:	8b bd c0 fe ff ff    	mov    -0x140(%ebp),%edi
    46a5:	89 54 24 10          	mov    %edx,0x10(%esp)
    46a9:	03 46 04             	add    0x4(%esi),%eax
    46ac:	c7 04 24 01 00 00 00 	movl   $0x1,(%esp)
    46b3:	89 7c 24 04          	mov    %edi,0x4(%esp)
    46b7:	89 44 24 08          	mov    %eax,0x8(%esp)
    46bb:	e8 30 ac 00 00       	call   f2f0 <_dl_debug_state+0x5e0>
    46c0:	8b 95 60 ff ff ff    	mov    -0xa0(%ebp),%edx
    46c6:	8b 42 0c             	mov    0xc(%edx),%eax
    46c9:	85 c0                	test   %eax,%eax
    46cb:	74 30                	je     46fd <free@plt+0x3f25>
    46cd:	8b bd 64 ff ff ff    	mov    -0x9c(%ebp),%edi
    46d3:	01 c2                	add    %eax,%edx
    46d5:	89 95 60 ff ff ff    	mov    %edx,-0xa0(%ebp)
    46db:	85 ff                	test   %edi,%edi
    46dd:	0f 85 27 ff ff ff    	jne    460a <free@plt+0x3e32>
    46e3:	8b b5 60 ff ff ff    	mov    -0xa0(%ebp),%esi
    46e9:	8b bd 58 ff ff ff    	mov    -0xa8(%ebp),%edi
    46ef:	8b 85 bc fe ff ff    	mov    -0x144(%ebp),%eax
    46f5:	03 7e 08             	add    0x8(%esi),%edi
    46f8:	e9 76 ff ff ff       	jmp    4673 <free@plt+0x3e9b>
    46fd:	8b 8d 5c ff ff ff    	mov    -0xa4(%ebp),%ecx
    4703:	8b 41 0c             	mov    0xc(%ecx),%eax
    4706:	85 c0                	test   %eax,%eax
    4708:	74 0d                	je     4717 <free@plt+0x3f3f>
    470a:	01 c1                	add    %eax,%ecx
    470c:	89 8d 5c ff ff ff    	mov    %ecx,-0xa4(%ebp)
    4712:	e9 58 fe ff ff       	jmp    456f <free@plt+0x3d97>
    4717:	31 c9                	xor    %ecx,%ecx
    4719:	8b b5 54 ff ff ff    	mov    -0xac(%ebp),%esi
    471f:	8b 76 0c             	mov    0xc(%esi),%esi
    4722:	85 f6                	test   %esi,%esi
    4724:	89 b5 54 ff ff ff    	mov    %esi,-0xac(%ebp)
    472a:	0f 85 bb fd ff ff    	jne    44eb <free@plt+0x3d13>
    4730:	c7 04 24 00 00 00 00 	movl   $0x0,(%esp)
    4737:	e8 08 1f 01 00       	call   16644 <calloc+0x1494>
    473c:	e9 87 e8 ff ff       	jmp    2fc8 <free@plt+0x27f0>
    4741:	83 bb fc fe ff ff 01 	cmpl   $0x1,-0x104(%ebx)
    4748:	76 e6                	jbe    4730 <free@plt+0x3f58>
    474a:	8d 4d dc             	lea    -0x24(%ebp),%ecx
    474d:	be 01 00 00 00       	mov    $0x1,%esi
    4752:	8d bb e8 ba ff ff    	lea    -0x4518(%ebx),%edi
    4758:	89 8d e8 fe ff ff    	mov    %ecx,-0x118(%ebp)
    475e:	89 bd d0 fe ff ff    	mov    %edi,-0x130(%ebp)
    4764:	8b 8d 1c ff ff ff    	mov    -0xe4(%ebp),%ecx
    476a:	8d 3c b5 00 00 00 00 	lea    0x0(,%esi,4),%edi
    4771:	8b 83 ac fc ff ff    	mov    -0x354(%ebx),%eax
    4777:	c7 45 dc 00 00 00 00 	movl   $0x0,-0x24(%ebp)
    477e:	8b 04 b0             	mov    (%eax,%esi,4),%eax
    4781:	c7 44 24 10 00 00 00 	movl   $0x0,0x10(%esp)
    4788:	00 
    4789:	c7 44 24 0c 01 00 00 	movl   $0x1,0xc(%esp)
    4790:	00 
    4791:	c7 44 24 08 01 00 00 	movl   $0x1,0x8(%esp)
    4798:	00 
    4799:	c7 44 24 04 00 00 00 	movl   $0x0,0x4(%esp)
    47a0:	00 
    47a1:	8b 91 cc 01 00 00    	mov    0x1cc(%ecx),%edx
    47a7:	8b 8d e8 fe ff ff    	mov    -0x118(%ebp),%ecx
    47ad:	89 14 24             	mov    %edx,(%esp)
    47b0:	8b 95 1c ff ff ff    	mov    -0xe4(%ebp),%edx
    47b6:	e8 e5 49 00 00       	call   91a0 <_dl_rtld_di_serinfo+0x1ec0>
    47bb:	31 d2                	xor    %edx,%edx
    47bd:	83 ec 14             	sub    $0x14,%esp
    47c0:	85 c0                	test   %eax,%eax
    47c2:	74 02                	je     47c6 <free@plt+0x3fee>
    47c4:	8b 10                	mov    (%eax),%edx
    47c6:	8b 45 dc             	mov    -0x24(%ebp),%eax
    47c9:	83 c6 01             	add    $0x1,%esi
    47cc:	89 54 24 18          	mov    %edx,0x18(%esp)
    47d0:	c7 44 24 14 08 00 00 	movl   $0x8,0x14(%esp)
    47d7:	00 
    47d8:	8b 40 04             	mov    0x4(%eax),%eax
    47db:	c7 44 24 0c 08 00 00 	movl   $0x8,0xc(%esp)
    47e2:	00 
    47e3:	89 44 24 10          	mov    %eax,0x10(%esp)
    47e7:	8b 83 ac fc ff ff    	mov    -0x354(%ebx),%eax
    47ed:	8b 04 38             	mov    (%eax,%edi,1),%eax
    47f0:	8b bd d0 fe ff ff    	mov    -0x130(%ebp),%edi
    47f6:	c7 04 24 01 00 00 00 	movl   $0x1,(%esp)
    47fd:	89 44 24 08          	mov    %eax,0x8(%esp)
    4801:	89 7c 24 04          	mov    %edi,0x4(%esp)
    4805:	e8 e6 aa 00 00       	call   f2f0 <_dl_debug_state+0x5e0>
    480a:	39 b3 fc fe ff ff    	cmp    %esi,-0x104(%ebx)
    4810:	0f 87 4e ff ff ff    	ja     4764 <free@plt+0x3f8c>
    4816:	e9 15 ff ff ff       	jmp    4730 <free@plt+0x3f58>
    481b:	90                   	nop    
    481c:	8d 74 26 00          	lea    0x0(%esi,%eiz,1),%esi
    4820:	55                   	push   %ebp
    4821:	ba 01 00 00 00       	mov    $0x1,%edx
    4826:	89 e5                	mov    %esp,%ebp
    4828:	83 ec 08             	sub    $0x8,%esp
    482b:	89 1c 24             	mov    %ebx,(%esp)
    482e:	e8 f8 27 01 00       	call   1702b <calloc+0x1e7b>
    4833:	81 c3 c1 87 01 00    	add    $0x187c1,%ebx
    4839:	89 74 24 04          	mov    %esi,0x4(%esp)
    483d:	8b 75 08             	mov    0x8(%ebp),%esi
    4840:	8b 4e 04             	mov    0x4(%esi),%ecx
    4843:	8b 83 2c 00 00 00    	mov    0x2c(%ebx),%eax
    4849:	e8 22 b4 00 00       	call   fc70 <_dl_debug_state+0xf60>
    484e:	85 c0                	test   %eax,%eax
    4850:	74 06                	je     4858 <free@plt+0x4080>
    4852:	8b 06                	mov    (%esi),%eax
    4854:	85 c0                	test   %eax,%eax
    4856:	75 10                	jne    4868 <free@plt+0x4090>
    4858:	8b 1c 24             	mov    (%esp),%ebx
    485b:	8b 74 24 04          	mov    0x4(%esp),%esi
    485f:	89 ec                	mov    %ebp,%esp
    4861:	5d                   	pop    %ebp
    4862:	c3                   	ret    
    4863:	90                   	nop    
    4864:	8d 74 26 00          	lea    0x0(%esi,%eiz,1),%esi
    4868:	c7 45 08 01 00 00 00 	movl   $0x1,0x8(%ebp)
    486f:	8b 1c 24             	mov    (%esp),%ebx
    4872:	8b 74 24 04          	mov    0x4(%esp),%esi
    4876:	89 ec                	mov    %ebp,%esp
    4878:	5d                   	pop    %ebp
    4879:	e9 c6 1d 01 00       	jmp    16644 <calloc+0x1494>
    487e:	90                   	nop    
    487f:	90                   	nop    
    4880:	55                   	push   %ebp
    4881:	89 e5                	mov    %esp,%ebp
    4883:	57                   	push   %edi
    4884:	56                   	push   %esi
    4885:	89 d6                	mov    %edx,%esi
    4887:	83 ec 08             	sub    $0x8,%esp
    488a:	89 45 f0             	mov    %eax,-0x10(%ebp)
    488d:	0f b6 02             	movzbl (%edx),%eax
    4890:	c6 45 f7 00          	movb   $0x0,-0x9(%ebp)
    4894:	3c 7b                	cmp    $0x7b,%al
    4896:	0f 84 bc 00 00 00    	je     4958 <free@plt+0x4180>
    489c:	8b 55 08             	mov    0x8(%ebp),%edx
    489f:	0f b6 0a             	movzbl (%edx),%ecx
    48a2:	38 c1                	cmp    %al,%cl
    48a4:	0f 85 de 00 00 00    	jne    4988 <free@plt+0x41b0>
    48aa:	31 d2                	xor    %edx,%edx
    48ac:	31 ff                	xor    %edi,%edi
    48ae:	84 c0                	test   %al,%al
    48b0:	75 10                	jne    48c2 <free@plt+0x40ea>
    48b2:	eb 1f                	jmp    48d3 <free@plt+0x40fb>
    48b4:	8d 74 26 00          	lea    0x0(%esi,%eiz,1),%esi
    48b8:	84 c9                	test   %cl,%cl
    48ba:	8d b6 00 00 00 00    	lea    0x0(%esi),%esi
    48c0:	74 0f                	je     48d1 <free@plt+0x40f9>
    48c2:	8b 45 08             	mov    0x8(%ebp),%eax
    48c5:	83 c2 01             	add    $0x1,%edx
    48c8:	0f b6 0c 16          	movzbl (%esi,%edx,1),%ecx
    48cc:	3a 0c 10             	cmp    (%eax,%edx,1),%cl
    48cf:	74 e7                	je     48b8 <free@plt+0x40e0>
    48d1:	89 d7                	mov    %edx,%edi
    48d3:	80 7d f7 00          	cmpb   $0x0,-0x9(%ebp)
    48d7:	74 17                	je     48f0 <free@plt+0x4118>
    48d9:	80 f9 7d             	cmp    $0x7d,%cl
    48dc:	0f 84 8e 00 00 00    	je     4970 <free@plt+0x4198>
    48e2:	31 d2                	xor    %edx,%edx
    48e4:	83 c4 08             	add    $0x8,%esp
    48e7:	89 d0                	mov    %edx,%eax
    48e9:	5e                   	pop    %esi
    48ea:	5f                   	pop    %edi
    48eb:	5d                   	pop    %ebp
    48ec:	c3                   	ret    
    48ed:	8d 76 00             	lea    0x0(%esi),%esi
    48f0:	84 c9                	test   %cl,%cl
    48f2:	75 3c                	jne    4930 <free@plt+0x4158>
    48f4:	8b 7d 10             	mov    0x10(%ebp),%edi
    48f7:	85 ff                	test   %edi,%edi
    48f9:	74 e9                	je     48e4 <free@plt+0x410c>
    48fb:	0f b6 04 16          	movzbl (%esi,%edx,1),%eax
    48ff:	84 c0                	test   %al,%al
    4901:	74 0b                	je     490e <free@plt+0x4136>
    4903:	8b 4d 0c             	mov    0xc(%ebp),%ecx
    4906:	85 c9                	test   %ecx,%ecx
    4908:	74 d8                	je     48e2 <free@plt+0x410a>
    490a:	3c 3a                	cmp    $0x3a,%al
    490c:	75 d4                	jne    48e2 <free@plt+0x410a>
    490e:	8b 45 f0             	mov    -0x10(%ebp),%eax
    4911:	83 c0 01             	add    $0x1,%eax
    4914:	39 c6                	cmp    %eax,%esi
    4916:	74 cc                	je     48e4 <free@plt+0x410c>
    4918:	8b 45 0c             	mov    0xc(%ebp),%eax
    491b:	85 c0                	test   %eax,%eax
    491d:	74 c3                	je     48e2 <free@plt+0x410a>
    491f:	80 7e fe 3a          	cmpb   $0x3a,-0x2(%esi)
    4923:	75 bd                	jne    48e2 <free@plt+0x410a>
    4925:	8d 76 00             	lea    0x0(%esi),%esi
    4928:	eb ba                	jmp    48e4 <free@plt+0x410c>
    492a:	8d b6 00 00 00 00    	lea    0x0(%esi),%esi
    4930:	80 f9 2f             	cmp    $0x2f,%cl
    4933:	90                   	nop    
    4934:	8d 74 26 00          	lea    0x0(%esi,%eiz,1),%esi
    4938:	74 ba                	je     48f4 <free@plt+0x411c>
    493a:	8b 45 0c             	mov    0xc(%ebp),%eax
    493d:	85 c0                	test   %eax,%eax
    493f:	90                   	nop    
    4940:	74 a0                	je     48e2 <free@plt+0x410a>
    4942:	80 f9 3a             	cmp    $0x3a,%cl
    4945:	8d 76 00             	lea    0x0(%esi),%esi
    4948:	75 98                	jne    48e2 <free@plt+0x410a>
    494a:	8d b6 00 00 00 00    	lea    0x0(%esi),%esi
    4950:	eb a2                	jmp    48f4 <free@plt+0x411c>
    4952:	8d b6 00 00 00 00    	lea    0x0(%esi),%esi
    4958:	83 c6 01             	add    $0x1,%esi
    495b:	0f b6 06             	movzbl (%esi),%eax
    495e:	c6 45 f7 01          	movb   $0x1,-0x9(%ebp)
    4962:	8d b6 00 00 00 00    	lea    0x0(%esi),%esi
    4968:	e9 2f ff ff ff       	jmp    489c <free@plt+0x40c4>
    496d:	8d 76 00             	lea    0x0(%esi),%esi
    4970:	8d 57 02             	lea    0x2(%edi),%edx
    4973:	8b 7d 10             	mov    0x10(%ebp),%edi
    4976:	83 ee 01             	sub    $0x1,%esi
    4979:	85 ff                	test   %edi,%edi
    497b:	0f 84 63 ff ff ff    	je     48e4 <free@plt+0x410c>
    4981:	e9 75 ff ff ff       	jmp    48fb <free@plt+0x4123>
    4986:	66 90                	xchg   %ax,%ax
    4988:	89 c1                	mov    %eax,%ecx
    498a:	31 ff                	xor    %edi,%edi
    498c:	31 d2                	xor    %edx,%edx
    498e:	e9 40 ff ff ff       	jmp    48d3 <free@plt+0x40fb>
    4993:	8d b6 00 00 00 00    	lea    0x0(%esi),%esi
    4999:	8d bc 27 00 00 00 00 	lea    0x0(%edi,%eiz,1),%edi
    49a0:	55                   	push   %ebp
    49a1:	89 e5                	mov    %esp,%ebp
    49a3:	57                   	push   %edi
    49a4:	31 ff                	xor    %edi,%edi
    49a6:	56                   	push   %esi
    49a7:	53                   	push   %ebx
    49a8:	e8 7e 26 01 00       	call   1702b <calloc+0x1e7b>
    49ad:	81 c3 47 86 01 00    	add    $0x18647,%ebx
    49b3:	83 ec 18             	sub    $0x18,%esp
    49b6:	8b 45 08             	mov    0x8(%ebp),%eax
    49b9:	8d 93 d1 d0 ff ff    	lea    -0x2f2f(%ebx),%edx
    49bf:	89 55 f0             	mov    %edx,-0x10(%ebp)
    49c2:	8d 93 d8 d0 ff ff    	lea    -0x2f28(%ebx),%edx
    49c8:	89 55 ec             	mov    %edx,-0x14(%ebp)
    49cb:	8d 93 e1 d0 ff ff    	lea    -0x2f1f(%ebx),%edx
    49d1:	89 55 e8             	mov    %edx,-0x18(%ebp)
    49d4:	eb 1c                	jmp    49f2 <free@plt+0x421a>
    49d6:	66 90                	xchg   %ax,%ax
    49d8:	83 c7 01             	add    $0x1,%edi
    49db:	8d 04 06             	lea    (%esi,%eax,1),%eax
    49de:	c7 44 24 04 24 00 00 	movl   $0x24,0x4(%esp)
    49e5:	00 
    49e6:	89 04 24             	mov    %eax,(%esp)
    49e9:	e8 42 1e 01 00       	call   16830 <calloc+0x1680>
    49ee:	85 c0                	test   %eax,%eax
    49f0:	74 7e                	je     4a70 <free@plt+0x4298>
    49f2:	8d 70 01             	lea    0x1(%eax),%esi
    49f5:	8b 83 28 ff ff ff    	mov    -0xd8(%ebx),%eax
    49fb:	8b 55 f0             	mov    -0x10(%ebp),%edx
    49fe:	89 44 24 08          	mov    %eax,0x8(%esp)
    4a02:	8b 45 0c             	mov    0xc(%ebp),%eax
    4a05:	89 14 24             	mov    %edx,(%esp)
    4a08:	89 f2                	mov    %esi,%edx
    4a0a:	89 44 24 04          	mov    %eax,0x4(%esp)
    4a0e:	8b 45 08             	mov    0x8(%ebp),%eax
    4a11:	e8 6a fe ff ff       	call   4880 <free@plt+0x40a8>
    4a16:	85 c0                	test   %eax,%eax
    4a18:	75 be                	jne    49d8 <free@plt+0x4200>
    4a1a:	8b 45 0c             	mov    0xc(%ebp),%eax
    4a1d:	8b 55 ec             	mov    -0x14(%ebp),%edx
    4a20:	c7 44 24 08 00 00 00 	movl   $0x0,0x8(%esp)
    4a27:	00 
    4a28:	89 44 24 04          	mov    %eax,0x4(%esp)
    4a2c:	8b 45 08             	mov    0x8(%ebp),%eax
    4a2f:	89 14 24             	mov    %edx,(%esp)
    4a32:	89 f2                	mov    %esi,%edx
    4a34:	e8 47 fe ff ff       	call   4880 <free@plt+0x40a8>
    4a39:	85 c0                	test   %eax,%eax
    4a3b:	75 9b                	jne    49d8 <free@plt+0x4200>
    4a3d:	8b 45 0c             	mov    0xc(%ebp),%eax
    4a40:	8b 55 e8             	mov    -0x18(%ebp),%edx
    4a43:	c7 44 24 08 00 00 00 	movl   $0x0,0x8(%esp)
    4a4a:	00 
    4a4b:	89 44 24 04          	mov    %eax,0x4(%esp)
    4a4f:	8b 45 08             	mov    0x8(%ebp),%eax
    4a52:	89 14 24             	mov    %edx,(%esp)
    4a55:	89 f2                	mov    %esi,%edx
    4a57:	e8 24 fe ff ff       	call   4880 <free@plt+0x40a8>
    4a5c:	85 c0                	test   %eax,%eax
    4a5e:	0f 84 77 ff ff ff    	je     49db <free@plt+0x4203>
    4a64:	e9 6f ff ff ff       	jmp    49d8 <free@plt+0x4200>
    4a69:	8d b4 26 00 00 00 00 	lea    0x0(%esi,%eiz,1),%esi
    4a70:	83 c4 18             	add    $0x18,%esp
    4a73:	89 f8                	mov    %edi,%eax
    4a75:	5b                   	pop    %ebx
    4a76:	5e                   	pop    %esi
    4a77:	5f                   	pop    %edi
    4a78:	5d                   	pop    %ebp
    4a79:	8d b4 26 00 00 00 00 	lea    0x0(%esi,%eiz,1),%esi
    4a80:	c3                   	ret    
    4a81:	eb 0d                	jmp    4a90 <free@plt+0x42b8>
    4a83:	90                   	nop    
    4a84:	90                   	nop    
    4a85:	90                   	nop    
    4a86:	90                   	nop    
    4a87:	90                   	nop    
    4a88:	90                   	nop    
    4a89:	90                   	nop    
    4a8a:	90                   	nop    
    4a8b:	90                   	nop    
    4a8c:	90                   	nop    
    4a8d:	90                   	nop    
    4a8e:	90                   	nop    
    4a8f:	90                   	nop    
    4a90:	55                   	push   %ebp
    4a91:	89 e5                	mov    %esp,%ebp
    4a93:	83 ec 18             	sub    $0x18,%esp
    4a96:	89 5d f4             	mov    %ebx,-0xc(%ebp)
    4a99:	e8 8d 25 01 00       	call   1702b <calloc+0x1e7b>
    4a9e:	81 c3 56 85 01 00    	add    $0x18556,%ebx
    4aa4:	89 75 f8             	mov    %esi,-0x8(%ebp)
    4aa7:	89 7d fc             	mov    %edi,-0x4(%ebp)
    4aaa:	89 c7                	mov    %eax,%edi
    4aac:	89 04 24             	mov    %eax,(%esp)
    4aaf:	e8 6c 1f 01 00       	call   16a20 <calloc+0x1870>
    4ab4:	8d 70 01             	lea    0x1(%eax),%esi
    4ab7:	89 34 24             	mov    %esi,(%esp)
    4aba:	e8 d9 bc ff ff       	call   798 <malloc@plt>
    4abf:	89 c2                	mov    %eax,%edx
    4ac1:	31 c0                	xor    %eax,%eax
    4ac3:	85 d2                	test   %edx,%edx
    4ac5:	74 10                	je     4ad7 <free@plt+0x42ff>
    4ac7:	89 74 24 08          	mov    %esi,0x8(%esp)
    4acb:	89 7c 24 04          	mov    %edi,0x4(%esp)
    4acf:	89 14 24             	mov    %edx,(%esp)
    4ad2:	e8 f9 23 01 00       	call   16ed0 <calloc+0x1d20>
    4ad7:	8b 5d f4             	mov    -0xc(%ebp),%ebx
    4ada:	8b 75 f8             	mov    -0x8(%ebp),%esi
    4add:	8b 7d fc             	mov    -0x4(%ebp),%edi
    4ae0:	89 ec                	mov    %ebp,%esp
    4ae2:	5d                   	pop    %ebp
    4ae3:	c3                   	ret    
    4ae4:	8d b6 00 00 00 00    	lea    0x0(%esi),%esi
    4aea:	8d bf 00 00 00 00    	lea    0x0(%edi),%edi
    4af0:	55                   	push   %ebp
    4af1:	89 e5                	mov    %esp,%ebp
    4af3:	57                   	push   %edi
    4af4:	56                   	push   %esi
    4af5:	89 ce                	mov    %ecx,%esi
    4af7:	53                   	push   %ebx
    4af8:	83 ec 14             	sub    $0x14,%esp
    4afb:	8b 00                	mov    (%eax),%eax
    4afd:	e8 29 25 01 00       	call   1702b <calloc+0x1e7b>
    4b02:	81 c3 f2 84 01 00    	add    $0x184f2,%ebx
    4b08:	83 f8 ff             	cmp    $0xffffffff,%eax
    4b0b:	89 45 f0             	mov    %eax,-0x10(%ebp)
    4b0e:	74 31                	je     4b41 <free@plt+0x4369>
    4b10:	8b 10                	mov    (%eax),%edx
    4b12:	8d b6 00 00 00 00    	lea    0x0(%esi),%esi
    4b18:	83 45 f0 04          	addl   $0x4,-0x10(%ebp)
    4b1c:	80 7e 0c 00          	cmpb   $0x0,0xc(%esi)
    4b20:	74 2e                	je     4b50 <free@plt+0x4378>
    4b22:	8b 46 08             	mov    0x8(%esi),%eax
    4b25:	83 40 04 01          	addl   $0x1,0x4(%eax)
    4b29:	8b 52 10             	mov    0x10(%edx),%edx
    4b2c:	83 fa 02             	cmp    $0x2,%edx
    4b2f:	73 05                	jae    4b36 <free@plt+0x435e>
    4b31:	ba 02 00 00 00       	mov    $0x2,%edx
    4b36:	01 10                	add    %edx,(%eax)
    4b38:	8b 45 f0             	mov    -0x10(%ebp),%eax
    4b3b:	8b 10                	mov    (%eax),%edx
    4b3d:	85 d2                	test   %edx,%edx
    4b3f:	75 d7                	jne    4b18 <free@plt+0x4340>
    4b41:	83 c4 14             	add    $0x14,%esp
    4b44:	5b                   	pop    %ebx
    4b45:	5e                   	pop    %esi
    4b46:	5f                   	pop    %edi
    4b47:	5d                   	pop    %ebp
    4b48:	c3                   	ret    
    4b49:	8d b4 26 00 00 00 00 	lea    0x0(%esi,%eiz,1),%esi
    4b50:	8b 7e 04             	mov    0x4(%esi),%edi
    4b53:	8b 46 08             	mov    0x8(%esi),%eax
    4b56:	8b 0e                	mov    (%esi),%ecx
    4b58:	89 45 ec             	mov    %eax,-0x14(%ebp)
    4b5b:	8d 47 01             	lea    0x1(%edi),%eax
    4b5e:	89 46 04             	mov    %eax,0x4(%esi)
    4b61:	8b 45 ec             	mov    -0x14(%ebp),%eax
    4b64:	89 4c f8 08          	mov    %ecx,0x8(%eax,%edi,8)
    4b68:	8b 42 10             	mov    0x10(%edx),%eax
    4b6b:	83 f8 01             	cmp    $0x1,%eax
    4b6e:	77 20                	ja     4b90 <free@plt+0x43b8>
    4b70:	19 c0                	sbb    %eax,%eax
    4b72:	83 c0 2f             	add    $0x2f,%eax
    4b75:	88 01                	mov    %al,(%ecx)
    4b77:	83 06 01             	addl   $0x1,(%esi)
    4b7a:	8b 06                	mov    (%esi),%eax
    4b7c:	c6 00 00             	movb   $0x0,(%eax)
    4b7f:	8b 45 08             	mov    0x8(%ebp),%eax
    4b82:	8b 55 ec             	mov    -0x14(%ebp),%edx
    4b85:	83 06 01             	addl   $0x1,(%esi)
    4b88:	89 44 fa 0c          	mov    %eax,0xc(%edx,%edi,8)
    4b8c:	eb aa                	jmp    4b38 <free@plt+0x4360>
    4b8e:	66 90                	xchg   %ax,%ax
    4b90:	83 e8 01             	sub    $0x1,%eax
    4b93:	89 44 24 08          	mov    %eax,0x8(%esp)
    4b97:	8b 42 0c             	mov    0xc(%edx),%eax
    4b9a:	89 0c 24             	mov    %ecx,(%esp)
    4b9d:	89 44 24 04          	mov    %eax,0x4(%esp)
    4ba1:	e8 8a 22 01 00       	call   16e30 <calloc+0x1c80>
    4ba6:	89 06                	mov    %eax,(%esi)
    4ba8:	eb d0                	jmp    4b7a <free@plt+0x43a2>
    4baa:	8d b6 00 00 00 00    	lea    0x0(%esi),%esi
    4bb0:	55                   	push   %ebp
    4bb1:	89 e5                	mov    %esp,%ebp
    4bb3:	57                   	push   %edi
    4bb4:	56                   	push   %esi
    4bb5:	53                   	push   %ebx
    4bb6:	e8 70 24 01 00       	call   1702b <calloc+0x1e7b>
    4bbb:	81 c3 39 84 01 00    	add    $0x18439,%ebx
    4bc1:	83 ec 4c             	sub    $0x4c,%esp
    4bc4:	89 45 f0             	mov    %eax,-0x10(%ebp)
    4bc7:	8d 45 f0             	lea    -0x10(%ebp),%eax
    4bca:	89 55 dc             	mov    %edx,-0x24(%ebp)
    4bcd:	c7 45 e8 00 00 00 00 	movl   $0x0,-0x18(%ebp)
    4bd4:	89 45 d0             	mov    %eax,-0x30(%ebp)
    4bd7:	8d 93 35 d3 ff ff    	lea    -0x2ccb(%ebx),%edx
    4bdd:	8d 8b ec a5 ff ff    	lea    -0x5a14(%ebx),%ecx
    4be3:	8d b3 ac a5 ff ff    	lea    -0x5a54(%ebx),%esi
    4be9:	8d bb fc a5 ff ff    	lea    -0x5a04(%ebx),%edi
    4bef:	89 55 cc             	mov    %edx,-0x34(%ebp)
    4bf2:	89 4d c8             	mov    %ecx,-0x38(%ebp)
    4bf5:	89 75 c4             	mov    %esi,-0x3c(%ebp)
    4bf8:	89 7d c0             	mov    %edi,-0x40(%ebp)
    4bfb:	90                   	nop    
    4bfc:	8d 74 26 00          	lea    0x0(%esi,%eiz,1),%esi
    4c00:	8b 55 08             	mov    0x8(%ebp),%edx
    4c03:	8b 4d d0             	mov    -0x30(%ebp),%ecx
    4c06:	89 54 24 04          	mov    %edx,0x4(%esp)
    4c0a:	89 0c 24             	mov    %ecx,(%esp)
    4c0d:	e8 be fe 00 00       	call   14ad0 <_dl_make_stack_executable+0x3290>
    4c12:	85 c0                	test   %eax,%eax
    4c14:	89 45 e4             	mov    %eax,-0x1c(%ebp)
    4c17:	0f 84 7b 02 00 00    	je     4e98 <free@plt+0x46c0>
    4c1d:	8b 45 e4             	mov    -0x1c(%ebp),%eax
    4c20:	89 04 24             	mov    %eax,(%esp)
    4c23:	e8 f8 1d 01 00       	call   16a20 <calloc+0x1870>
    4c28:	85 c0                	test   %eax,%eax
    4c2a:	89 45 b4             	mov    %eax,-0x4c(%ebp)
    4c2d:	0f 85 9d 01 00 00    	jne    4dd0 <free@plt+0x45f8>
    4c33:	8b 55 cc             	mov    -0x34(%ebp),%edx
    4c36:	89 55 e4             	mov    %edx,-0x1c(%ebp)
    4c39:	8b 45 0c             	mov    0xc(%ebp),%eax
    4c3c:	85 c0                	test   %eax,%eax
    4c3e:	0f 85 f0 01 00 00    	jne    4e34 <free@plt+0x465c>
    4c44:	8b b3 a4 02 00 00    	mov    0x2a4(%ebx),%esi
    4c4a:	85 f6                	test   %esi,%esi
    4c4c:	89 75 bc             	mov    %esi,-0x44(%ebp)
    4c4f:	75 13                	jne    4c64 <free@plt+0x448c>
    4c51:	eb 7d                	jmp    4cd0 <free@plt+0x44f8>
    4c53:	90                   	nop    
    4c54:	8d 74 26 00          	lea    0x0(%esi,%eiz,1),%esi
    4c58:	8b 7d bc             	mov    -0x44(%ebp),%edi
    4c5b:	8b 3f                	mov    (%edi),%edi
    4c5d:	85 ff                	test   %edi,%edi
    4c5f:	89 7d bc             	mov    %edi,-0x44(%ebp)
    4c62:	74 6c                	je     4cd0 <free@plt+0x44f8>
    4c64:	8b 7d bc             	mov    -0x44(%ebp),%edi
    4c67:	8b 45 b4             	mov    -0x4c(%ebp),%eax
    4c6a:	39 47 10             	cmp    %eax,0x10(%edi)
    4c6d:	75 e9                	jne    4c58 <free@plt+0x4480>
    4c6f:	8b 7f 0c             	mov    0xc(%edi),%edi
    4c72:	39 c0                	cmp    %eax,%eax
    4c74:	89 c1                	mov    %eax,%ecx
    4c76:	8b 75 e4             	mov    -0x1c(%ebp),%esi
    4c79:	f3 a6                	repz cmpsb %es:(%edi),%ds:(%esi)
    4c7b:	75 db                	jne    4c58 <free@plt+0x4480>
    4c7d:	8b 45 e8             	mov    -0x18(%ebp),%eax
    4c80:	85 c0                	test   %eax,%eax
    4c82:	0f 84 27 02 00 00    	je     4eaf <free@plt+0x46d7>
    4c88:	8b 55 dc             	mov    -0x24(%ebp),%edx
    4c8b:	31 c0                	xor    %eax,%eax
    4c8d:	8b 4d bc             	mov    -0x44(%ebp),%ecx
    4c90:	39 0a                	cmp    %ecx,(%edx)
    4c92:	0f 84 68 ff ff ff    	je     4c00 <free@plt+0x4428>
    4c98:	83 c0 01             	add    $0x1,%eax
    4c9b:	39 45 e8             	cmp    %eax,-0x18(%ebp)
    4c9e:	76 0b                	jbe    4cab <free@plt+0x44d3>
    4ca0:	8b 75 dc             	mov    -0x24(%ebp),%esi
    4ca3:	8b 7d bc             	mov    -0x44(%ebp),%edi
    4ca6:	39 3c 86             	cmp    %edi,(%esi,%eax,4)
    4ca9:	75 ed                	jne    4c98 <free@plt+0x44c0>
    4cab:	3b 45 e8             	cmp    -0x18(%ebp),%eax
    4cae:	0f 85 4c ff ff ff    	jne    4c00 <free@plt+0x4428>
    4cb4:	8b 45 e8             	mov    -0x18(%ebp),%eax
    4cb7:	83 45 e8 01          	addl   $0x1,-0x18(%ebp)
    4cbb:	c1 e0 02             	shl    $0x2,%eax
    4cbe:	8b 4d bc             	mov    -0x44(%ebp),%ecx
    4cc1:	8b 55 dc             	mov    -0x24(%ebp),%edx
    4cc4:	89 0c 02             	mov    %ecx,(%edx,%eax,1)
    4cc7:	e9 34 ff ff ff       	jmp    4c00 <free@plt+0x4428>
    4ccc:	8d 74 26 00          	lea    0x0(%esi,%eiz,1),%esi
    4cd0:	8b 45 14             	mov    0x14(%ebp),%eax
    4cd3:	c7 45 ec 00 00 00 00 	movl   $0x0,-0x14(%ebp)
    4cda:	85 c0                	test   %eax,%eax
    4cdc:	74 11                	je     4cef <free@plt+0x4517>
    4cde:	8b 75 14             	mov    0x14(%ebp),%esi
    4ce1:	89 34 24             	mov    %esi,(%esp)
    4ce4:	e8 37 1d 01 00       	call   16a20 <calloc+0x1870>
    4ce9:	83 c0 01             	add    $0x1,%eax
    4cec:	89 45 ec             	mov    %eax,-0x14(%ebp)
    4cef:	8b 7d b4             	mov    -0x4c(%ebp),%edi
    4cf2:	8b 83 18 ff ff ff    	mov    -0xe8(%ebx),%eax
    4cf8:	8d 44 87 15          	lea    0x15(%edi,%eax,4),%eax
    4cfc:	03 45 ec             	add    -0x14(%ebp),%eax
    4cff:	89 04 24             	mov    %eax,(%esp)
    4d02:	e8 91 ba ff ff       	call   798 <malloc@plt>
    4d07:	85 c0                	test   %eax,%eax
    4d09:	89 c7                	mov    %eax,%edi
    4d0b:	0f 84 ac 01 00 00    	je     4ebd <free@plt+0x46e5>
    4d11:	8b 83 18 ff ff ff    	mov    -0xe8(%ebx),%eax
    4d17:	8b 55 b4             	mov    -0x4c(%ebp),%edx
    4d1a:	8b 4d e4             	mov    -0x1c(%ebp),%ecx
    4d1d:	8d 44 87 14          	lea    0x14(%edi,%eax,4),%eax
    4d21:	89 47 0c             	mov    %eax,0xc(%edi)
    4d24:	89 54 24 08          	mov    %edx,0x8(%esp)
    4d28:	89 4c 24 04          	mov    %ecx,0x4(%esp)
    4d2c:	89 04 24             	mov    %eax,(%esp)
    4d2f:	e8 fc 20 01 00       	call   16e30 <calloc+0x1c80>
    4d34:	c6 00 00             	movb   $0x0,(%eax)
    4d37:	8b 75 b4             	mov    -0x4c(%ebp),%esi
    4d3a:	3b b3 f4 05 00 00    	cmp    0x5f4(%ebx),%esi
    4d40:	89 77 10             	mov    %esi,0x10(%edi)
    4d43:	76 06                	jbe    4d4b <free@plt+0x4573>
    4d45:	89 b3 f4 05 00 00    	mov    %esi,0x5f4(%ebx)
    4d4b:	8b 45 e4             	mov    -0x1c(%ebp),%eax
    4d4e:	8b 8b 18 ff ff ff    	mov    -0xe8(%ebx),%ecx
    4d54:	80 38 2f             	cmpb   $0x2f,(%eax)
    4d57:	0f 95 c0             	setne  %al
    4d5a:	0f b6 c0             	movzbl %al,%eax
    4d5d:	01 c0                	add    %eax,%eax
    4d5f:	85 c9                	test   %ecx,%ecx
    4d61:	74 10                	je     4d73 <free@plt+0x459b>
    4d63:	31 d2                	xor    %edx,%edx
    4d65:	8d 76 00             	lea    0x0(%esi),%esi
    4d68:	89 44 97 14          	mov    %eax,0x14(%edi,%edx,4)
    4d6c:	83 c2 01             	add    $0x1,%edx
    4d6f:	39 d1                	cmp    %edx,%ecx
    4d71:	77 f5                	ja     4d68 <free@plt+0x4590>
    4d73:	8b 45 14             	mov    0x14(%ebp),%eax
    4d76:	8b 55 10             	mov    0x10(%ebp),%edx
    4d79:	85 c0                	test   %eax,%eax
    4d7b:	89 57 04             	mov    %edx,0x4(%edi)
    4d7e:	0f 84 50 01 00 00    	je     4ed4 <free@plt+0x46fc>
    4d84:	8b 75 b4             	mov    -0x4c(%ebp),%esi
    4d87:	8b 55 ec             	mov    -0x14(%ebp),%edx
    4d8a:	8d 44 8e 15          	lea    0x15(%esi,%ecx,4),%eax
    4d8e:	8b 4d 14             	mov    0x14(%ebp),%ecx
    4d91:	8d 04 07             	lea    (%edi,%eax,1),%eax
    4d94:	89 54 24 08          	mov    %edx,0x8(%esp)
    4d98:	89 04 24             	mov    %eax,(%esp)
    4d9b:	89 4c 24 04          	mov    %ecx,0x4(%esp)
    4d9f:	e8 2c 21 01 00       	call   16ed0 <calloc+0x1d20>
    4da4:	89 47 08             	mov    %eax,0x8(%edi)
    4da7:	8b 83 a4 02 00 00    	mov    0x2a4(%ebx),%eax
    4dad:	8b 75 e8             	mov    -0x18(%ebp),%esi
    4db0:	89 07                	mov    %eax,(%edi)
    4db2:	8b 45 dc             	mov    -0x24(%ebp),%eax
    4db5:	89 bb a4 02 00 00    	mov    %edi,0x2a4(%ebx)
    4dbb:	89 3c b0             	mov    %edi,(%eax,%esi,4)
    4dbe:	83 c6 01             	add    $0x1,%esi
    4dc1:	89 75 e8             	mov    %esi,-0x18(%ebp)
    4dc4:	e9 37 fe ff ff       	jmp    4c00 <free@plt+0x4428>
    4dc9:	8d b4 26 00 00 00 00 	lea    0x0(%esi,%eiz,1),%esi
    4dd0:	83 7d b4 01          	cmpl   $0x1,-0x4c(%ebp)
    4dd4:	0f 86 1b 01 00 00    	jbe    4ef5 <free@plt+0x471d>
    4dda:	8b 75 e4             	mov    -0x1c(%ebp),%esi
    4ddd:	8b 4d b4             	mov    -0x4c(%ebp),%ecx
    4de0:	80 7c 0e ff 2f       	cmpb   $0x2f,-0x1(%esi,%ecx,1)
    4de5:	0f 85 98 00 00 00    	jne    4e83 <free@plt+0x46ab>
    4deb:	89 f2                	mov    %esi,%edx
    4ded:	01 ca                	add    %ecx,%edx
    4def:	eb 15                	jmp    4e06 <free@plt+0x462e>
    4df1:	8d b4 26 00 00 00 00 	lea    0x0(%esi,%eiz,1),%esi
    4df8:	0f b6 42 fe          	movzbl -0x2(%edx),%eax
    4dfc:	83 ea 01             	sub    $0x1,%edx
    4dff:	3c 2f                	cmp    $0x2f,%al
    4e01:	75 7d                	jne    4e80 <free@plt+0x46a8>
